
Security_Key.elf:     file format elf32-littlearm

Sections:
Idx Name          Size      VMA       LMA       File off  Algn
  0 .isr_vector   00000188  08000000  08000000  00010000  2**0
                  CONTENTS, ALLOC, LOAD, READONLY, DATA
  1 .text         00004344  08000190  08000190  00010190  2**4
                  CONTENTS, ALLOC, LOAD, READONLY, CODE
  2 .rodata       000000bc  080044d4  080044d4  000144d4  2**2
                  CONTENTS, ALLOC, LOAD, READONLY, DATA
  3 .ARM.extab    00000000  08004590  08004590  000201ac  2**0
                  CONTENTS
  4 .ARM          00000008  08004590  08004590  00014590  2**2
                  CONTENTS, ALLOC, LOAD, READONLY, DATA
  5 .preinit_array 00000000  08004598  08004598  000201ac  2**0
                  CONTENTS, ALLOC, LOAD, DATA
  6 .init_array   00000004  08004598  08004598  00014598  2**2
                  CONTENTS, ALLOC, LOAD, DATA
  7 .fini_array   00000004  0800459c  0800459c  0001459c  2**2
                  CONTENTS, ALLOC, LOAD, DATA
  8 .data         000001ac  20000000  080045a0  00020000  2**2
                  CONTENTS, ALLOC, LOAD, DATA
  9 .ccmram       00000000  10000000  10000000  000201ac  2**0
                  CONTENTS
 10 .bss          00000bd8  200001ac  200001ac  000201ac  2**2
                  ALLOC
 11 ._user_heap_stack 00000604  20000d84  20000d84  000201ac  2**0
                  ALLOC
 12 .ARM.attributes 00000030  00000000  00000000  000201ac  2**0
                  CONTENTS, READONLY
 13 .comment      00000043  00000000  00000000  000201dc  2**0
                  CONTENTS, READONLY
 14 .debug_frame  00000834  00000000  00000000  00020220  2**2
                  CONTENTS, READONLY, DEBUGGING, OCTETS

Disassembly of section .text:

08000190 <__do_global_dtors_aux>:
 8000190:	b510      	push	{r4, lr}
 8000192:	4c05      	ldr	r4, [pc, #20]	; (80001a8 <__do_global_dtors_aux+0x18>)
 8000194:	7823      	ldrb	r3, [r4, #0]
 8000196:	b933      	cbnz	r3, 80001a6 <__do_global_dtors_aux+0x16>
 8000198:	4b04      	ldr	r3, [pc, #16]	; (80001ac <__do_global_dtors_aux+0x1c>)
 800019a:	b113      	cbz	r3, 80001a2 <__do_global_dtors_aux+0x12>
 800019c:	4804      	ldr	r0, [pc, #16]	; (80001b0 <__do_global_dtors_aux+0x20>)
 800019e:	f3af 8000 	nop.w
 80001a2:	2301      	movs	r3, #1
 80001a4:	7023      	strb	r3, [r4, #0]
 80001a6:	bd10      	pop	{r4, pc}
 80001a8:	200001ac 	.word	0x200001ac
 80001ac:	00000000 	.word	0x00000000
 80001b0:	080044bc 	.word	0x080044bc

080001b4 <frame_dummy>:
 80001b4:	b508      	push	{r3, lr}
 80001b6:	4b03      	ldr	r3, [pc, #12]	; (80001c4 <frame_dummy+0x10>)
 80001b8:	b11b      	cbz	r3, 80001c2 <frame_dummy+0xe>
 80001ba:	4903      	ldr	r1, [pc, #12]	; (80001c8 <frame_dummy+0x14>)
 80001bc:	4803      	ldr	r0, [pc, #12]	; (80001cc <frame_dummy+0x18>)
 80001be:	f3af 8000 	nop.w
 80001c2:	bd08      	pop	{r3, pc}
 80001c4:	00000000 	.word	0x00000000
 80001c8:	200001b0 	.word	0x200001b0
 80001cc:	080044bc 	.word	0x080044bc

080001d0 <memchr>:
 80001d0:	f001 01ff 	and.w	r1, r1, #255	; 0xff
 80001d4:	2a10      	cmp	r2, #16
 80001d6:	db2b      	blt.n	8000230 <memchr+0x60>
 80001d8:	f010 0f07 	tst.w	r0, #7
 80001dc:	d008      	beq.n	80001f0 <memchr+0x20>
 80001de:	f810 3b01 	ldrb.w	r3, [r0], #1
 80001e2:	3a01      	subs	r2, #1
 80001e4:	428b      	cmp	r3, r1
 80001e6:	d02d      	beq.n	8000244 <memchr+0x74>
 80001e8:	f010 0f07 	tst.w	r0, #7
 80001ec:	b342      	cbz	r2, 8000240 <memchr+0x70>
 80001ee:	d1f6      	bne.n	80001de <memchr+0xe>
 80001f0:	b4f0      	push	{r4, r5, r6, r7}
 80001f2:	ea41 2101 	orr.w	r1, r1, r1, lsl #8
 80001f6:	ea41 4101 	orr.w	r1, r1, r1, lsl #16
 80001fa:	f022 0407 	bic.w	r4, r2, #7
 80001fe:	f07f 0700 	mvns.w	r7, #0
 8000202:	2300      	movs	r3, #0
 8000204:	e8f0 5602 	ldrd	r5, r6, [r0], #8
 8000208:	3c08      	subs	r4, #8
 800020a:	ea85 0501 	eor.w	r5, r5, r1
 800020e:	ea86 0601 	eor.w	r6, r6, r1
 8000212:	fa85 f547 	uadd8	r5, r5, r7
 8000216:	faa3 f587 	sel	r5, r3, r7
 800021a:	fa86 f647 	uadd8	r6, r6, r7
 800021e:	faa5 f687 	sel	r6, r5, r7
 8000222:	b98e      	cbnz	r6, 8000248 <memchr+0x78>
 8000224:	d1ee      	bne.n	8000204 <memchr+0x34>
 8000226:	bcf0      	pop	{r4, r5, r6, r7}
 8000228:	f001 01ff 	and.w	r1, r1, #255	; 0xff
 800022c:	f002 0207 	and.w	r2, r2, #7
 8000230:	b132      	cbz	r2, 8000240 <memchr+0x70>
 8000232:	f810 3b01 	ldrb.w	r3, [r0], #1
 8000236:	3a01      	subs	r2, #1
 8000238:	ea83 0301 	eor.w	r3, r3, r1
 800023c:	b113      	cbz	r3, 8000244 <memchr+0x74>
 800023e:	d1f8      	bne.n	8000232 <memchr+0x62>
 8000240:	2000      	movs	r0, #0
 8000242:	4770      	bx	lr
 8000244:	3801      	subs	r0, #1
 8000246:	4770      	bx	lr
 8000248:	2d00      	cmp	r5, #0
 800024a:	bf06      	itte	eq
 800024c:	4635      	moveq	r5, r6
 800024e:	3803      	subeq	r0, #3
 8000250:	3807      	subne	r0, #7
 8000252:	f015 0f01 	tst.w	r5, #1
 8000256:	d107      	bne.n	8000268 <memchr+0x98>
 8000258:	3001      	adds	r0, #1
 800025a:	f415 7f80 	tst.w	r5, #256	; 0x100
 800025e:	bf02      	ittt	eq
 8000260:	3001      	addeq	r0, #1
 8000262:	f415 3fc0 	tsteq.w	r5, #98304	; 0x18000
 8000266:	3001      	addeq	r0, #1
 8000268:	bcf0      	pop	{r4, r5, r6, r7}
 800026a:	3801      	subs	r0, #1
 800026c:	4770      	bx	lr
 800026e:	bf00      	nop

08000270 <__aeabi_uldivmod>:
 8000270:	b953      	cbnz	r3, 8000288 <__aeabi_uldivmod+0x18>
 8000272:	b94a      	cbnz	r2, 8000288 <__aeabi_uldivmod+0x18>
 8000274:	2900      	cmp	r1, #0
 8000276:	bf08      	it	eq
 8000278:	2800      	cmpeq	r0, #0
 800027a:	bf1c      	itt	ne
 800027c:	f04f 31ff 	movne.w	r1, #4294967295
 8000280:	f04f 30ff 	movne.w	r0, #4294967295
 8000284:	f000 b970 	b.w	8000568 <__aeabi_idiv0>
 8000288:	f1ad 0c08 	sub.w	ip, sp, #8
 800028c:	e96d ce04 	strd	ip, lr, [sp, #-16]!
 8000290:	f000 f806 	bl	80002a0 <__udivmoddi4>
 8000294:	f8dd e004 	ldr.w	lr, [sp, #4]
 8000298:	e9dd 2302 	ldrd	r2, r3, [sp, #8]
 800029c:	b004      	add	sp, #16
 800029e:	4770      	bx	lr

080002a0 <__udivmoddi4>:
 80002a0:	e92d 47f0 	stmdb	sp!, {r4, r5, r6, r7, r8, r9, sl, lr}
 80002a4:	9e08      	ldr	r6, [sp, #32]
 80002a6:	460d      	mov	r5, r1
 80002a8:	4604      	mov	r4, r0
 80002aa:	460f      	mov	r7, r1
 80002ac:	2b00      	cmp	r3, #0
 80002ae:	d14a      	bne.n	8000346 <__udivmoddi4+0xa6>
 80002b0:	428a      	cmp	r2, r1
 80002b2:	4694      	mov	ip, r2
 80002b4:	d965      	bls.n	8000382 <__udivmoddi4+0xe2>
 80002b6:	fab2 f382 	clz	r3, r2
 80002ba:	b143      	cbz	r3, 80002ce <__udivmoddi4+0x2e>
 80002bc:	fa02 fc03 	lsl.w	ip, r2, r3
 80002c0:	f1c3 0220 	rsb	r2, r3, #32
 80002c4:	409f      	lsls	r7, r3
 80002c6:	fa20 f202 	lsr.w	r2, r0, r2
 80002ca:	4317      	orrs	r7, r2
 80002cc:	409c      	lsls	r4, r3
 80002ce:	ea4f 4e1c 	mov.w	lr, ip, lsr #16
 80002d2:	fa1f f58c 	uxth.w	r5, ip
 80002d6:	fbb7 f1fe 	udiv	r1, r7, lr
 80002da:	0c22      	lsrs	r2, r4, #16
 80002dc:	fb0e 7711 	mls	r7, lr, r1, r7
 80002e0:	ea42 4207 	orr.w	r2, r2, r7, lsl #16
 80002e4:	fb01 f005 	mul.w	r0, r1, r5
 80002e8:	4290      	cmp	r0, r2
 80002ea:	d90a      	bls.n	8000302 <__udivmoddi4+0x62>
 80002ec:	eb1c 0202 	adds.w	r2, ip, r2
 80002f0:	f101 37ff 	add.w	r7, r1, #4294967295
 80002f4:	f080 811c 	bcs.w	8000530 <__udivmoddi4+0x290>
 80002f8:	4290      	cmp	r0, r2
 80002fa:	f240 8119 	bls.w	8000530 <__udivmoddi4+0x290>
 80002fe:	3902      	subs	r1, #2
 8000300:	4462      	add	r2, ip
 8000302:	1a12      	subs	r2, r2, r0
 8000304:	b2a4      	uxth	r4, r4
 8000306:	fbb2 f0fe 	udiv	r0, r2, lr
 800030a:	fb0e 2210 	mls	r2, lr, r0, r2
 800030e:	ea44 4402 	orr.w	r4, r4, r2, lsl #16
 8000312:	fb00 f505 	mul.w	r5, r0, r5
 8000316:	42a5      	cmp	r5, r4
 8000318:	d90a      	bls.n	8000330 <__udivmoddi4+0x90>
 800031a:	eb1c 0404 	adds.w	r4, ip, r4
 800031e:	f100 32ff 	add.w	r2, r0, #4294967295
 8000322:	f080 8107 	bcs.w	8000534 <__udivmoddi4+0x294>
 8000326:	42a5      	cmp	r5, r4
 8000328:	f240 8104 	bls.w	8000534 <__udivmoddi4+0x294>
 800032c:	4464      	add	r4, ip
 800032e:	3802      	subs	r0, #2
 8000330:	ea40 4001 	orr.w	r0, r0, r1, lsl #16
 8000334:	1b64      	subs	r4, r4, r5
 8000336:	2100      	movs	r1, #0
 8000338:	b11e      	cbz	r6, 8000342 <__udivmoddi4+0xa2>
 800033a:	40dc      	lsrs	r4, r3
 800033c:	2300      	movs	r3, #0
 800033e:	e9c6 4300 	strd	r4, r3, [r6]
 8000342:	e8bd 87f0 	ldmia.w	sp!, {r4, r5, r6, r7, r8, r9, sl, pc}
 8000346:	428b      	cmp	r3, r1
 8000348:	d908      	bls.n	800035c <__udivmoddi4+0xbc>
 800034a:	2e00      	cmp	r6, #0
 800034c:	f000 80ed 	beq.w	800052a <__udivmoddi4+0x28a>
 8000350:	2100      	movs	r1, #0
 8000352:	e9c6 0500 	strd	r0, r5, [r6]
 8000356:	4608      	mov	r0, r1
 8000358:	e8bd 87f0 	ldmia.w	sp!, {r4, r5, r6, r7, r8, r9, sl, pc}
 800035c:	fab3 f183 	clz	r1, r3
 8000360:	2900      	cmp	r1, #0
 8000362:	d149      	bne.n	80003f8 <__udivmoddi4+0x158>
 8000364:	42ab      	cmp	r3, r5
 8000366:	d302      	bcc.n	800036e <__udivmoddi4+0xce>
 8000368:	4282      	cmp	r2, r0
 800036a:	f200 80f8 	bhi.w	800055e <__udivmoddi4+0x2be>
 800036e:	1a84      	subs	r4, r0, r2
 8000370:	eb65 0203 	sbc.w	r2, r5, r3
 8000374:	2001      	movs	r0, #1
 8000376:	4617      	mov	r7, r2
 8000378:	2e00      	cmp	r6, #0
 800037a:	d0e2      	beq.n	8000342 <__udivmoddi4+0xa2>
 800037c:	e9c6 4700 	strd	r4, r7, [r6]
 8000380:	e7df      	b.n	8000342 <__udivmoddi4+0xa2>
 8000382:	b902      	cbnz	r2, 8000386 <__udivmoddi4+0xe6>
 8000384:	deff      	udf	#255	; 0xff
 8000386:	fab2 f382 	clz	r3, r2
 800038a:	2b00      	cmp	r3, #0
 800038c:	f040 8090 	bne.w	80004b0 <__udivmoddi4+0x210>
 8000390:	1a8a      	subs	r2, r1, r2
 8000392:	ea4f 471c 	mov.w	r7, ip, lsr #16
 8000396:	fa1f fe8c 	uxth.w	lr, ip
 800039a:	2101      	movs	r1, #1
 800039c:	fbb2 f5f7 	udiv	r5, r2, r7
 80003a0:	fb07 2015 	mls	r0, r7, r5, r2
 80003a4:	0c22      	lsrs	r2, r4, #16
 80003a6:	ea42 4200 	orr.w	r2, r2, r0, lsl #16
 80003aa:	fb0e f005 	mul.w	r0, lr, r5
 80003ae:	4290      	cmp	r0, r2
 80003b0:	d908      	bls.n	80003c4 <__udivmoddi4+0x124>
 80003b2:	eb1c 0202 	adds.w	r2, ip, r2
 80003b6:	f105 38ff 	add.w	r8, r5, #4294967295
 80003ba:	d202      	bcs.n	80003c2 <__udivmoddi4+0x122>
 80003bc:	4290      	cmp	r0, r2
 80003be:	f200 80cb 	bhi.w	8000558 <__udivmoddi4+0x2b8>
 80003c2:	4645      	mov	r5, r8
 80003c4:	1a12      	subs	r2, r2, r0
 80003c6:	b2a4      	uxth	r4, r4
 80003c8:	fbb2 f0f7 	udiv	r0, r2, r7
 80003cc:	fb07 2210 	mls	r2, r7, r0, r2
 80003d0:	ea44 4402 	orr.w	r4, r4, r2, lsl #16
 80003d4:	fb0e fe00 	mul.w	lr, lr, r0
 80003d8:	45a6      	cmp	lr, r4
 80003da:	d908      	bls.n	80003ee <__udivmoddi4+0x14e>
 80003dc:	eb1c 0404 	adds.w	r4, ip, r4
 80003e0:	f100 32ff 	add.w	r2, r0, #4294967295
 80003e4:	d202      	bcs.n	80003ec <__udivmoddi4+0x14c>
 80003e6:	45a6      	cmp	lr, r4
 80003e8:	f200 80bb 	bhi.w	8000562 <__udivmoddi4+0x2c2>
 80003ec:	4610      	mov	r0, r2
 80003ee:	eba4 040e 	sub.w	r4, r4, lr
 80003f2:	ea40 4005 	orr.w	r0, r0, r5, lsl #16
 80003f6:	e79f      	b.n	8000338 <__udivmoddi4+0x98>
 80003f8:	f1c1 0720 	rsb	r7, r1, #32
 80003fc:	408b      	lsls	r3, r1
 80003fe:	fa22 fc07 	lsr.w	ip, r2, r7
 8000402:	ea4c 0c03 	orr.w	ip, ip, r3
 8000406:	fa05 f401 	lsl.w	r4, r5, r1
 800040a:	fa20 f307 	lsr.w	r3, r0, r7
 800040e:	40fd      	lsrs	r5, r7
 8000410:	ea4f 491c 	mov.w	r9, ip, lsr #16
 8000414:	4323      	orrs	r3, r4
 8000416:	fbb5 f8f9 	udiv	r8, r5, r9
 800041a:	fa1f fe8c 	uxth.w	lr, ip
 800041e:	fb09 5518 	mls	r5, r9, r8, r5
 8000422:	0c1c      	lsrs	r4, r3, #16
 8000424:	ea44 4405 	orr.w	r4, r4, r5, lsl #16
 8000428:	fb08 f50e 	mul.w	r5, r8, lr
 800042c:	42a5      	cmp	r5, r4
 800042e:	fa02 f201 	lsl.w	r2, r2, r1
 8000432:	fa00 f001 	lsl.w	r0, r0, r1
 8000436:	d90b      	bls.n	8000450 <__udivmoddi4+0x1b0>
 8000438:	eb1c 0404 	adds.w	r4, ip, r4
 800043c:	f108 3aff 	add.w	sl, r8, #4294967295
 8000440:	f080 8088 	bcs.w	8000554 <__udivmoddi4+0x2b4>
 8000444:	42a5      	cmp	r5, r4
 8000446:	f240 8085 	bls.w	8000554 <__udivmoddi4+0x2b4>
 800044a:	f1a8 0802 	sub.w	r8, r8, #2
 800044e:	4464      	add	r4, ip
 8000450:	1b64      	subs	r4, r4, r5
 8000452:	b29d      	uxth	r5, r3
 8000454:	fbb4 f3f9 	udiv	r3, r4, r9
 8000458:	fb09 4413 	mls	r4, r9, r3, r4
 800045c:	ea45 4404 	orr.w	r4, r5, r4, lsl #16
 8000460:	fb03 fe0e 	mul.w	lr, r3, lr
 8000464:	45a6      	cmp	lr, r4
 8000466:	d908      	bls.n	800047a <__udivmoddi4+0x1da>
 8000468:	eb1c 0404 	adds.w	r4, ip, r4
 800046c:	f103 35ff 	add.w	r5, r3, #4294967295
 8000470:	d26c      	bcs.n	800054c <__udivmoddi4+0x2ac>
 8000472:	45a6      	cmp	lr, r4
 8000474:	d96a      	bls.n	800054c <__udivmoddi4+0x2ac>
 8000476:	3b02      	subs	r3, #2
 8000478:	4464      	add	r4, ip
 800047a:	ea43 4308 	orr.w	r3, r3, r8, lsl #16
 800047e:	fba3 9502 	umull	r9, r5, r3, r2
 8000482:	eba4 040e 	sub.w	r4, r4, lr
 8000486:	42ac      	cmp	r4, r5
 8000488:	46c8      	mov	r8, r9
 800048a:	46ae      	mov	lr, r5
 800048c:	d356      	bcc.n	800053c <__udivmoddi4+0x29c>
 800048e:	d053      	beq.n	8000538 <__udivmoddi4+0x298>
 8000490:	b156      	cbz	r6, 80004a8 <__udivmoddi4+0x208>
 8000492:	ebb0 0208 	subs.w	r2, r0, r8
 8000496:	eb64 040e 	sbc.w	r4, r4, lr
 800049a:	fa04 f707 	lsl.w	r7, r4, r7
 800049e:	40ca      	lsrs	r2, r1
 80004a0:	40cc      	lsrs	r4, r1
 80004a2:	4317      	orrs	r7, r2
 80004a4:	e9c6 7400 	strd	r7, r4, [r6]
 80004a8:	4618      	mov	r0, r3
 80004aa:	2100      	movs	r1, #0
 80004ac:	e8bd 87f0 	ldmia.w	sp!, {r4, r5, r6, r7, r8, r9, sl, pc}
 80004b0:	f1c3 0120 	rsb	r1, r3, #32
 80004b4:	fa02 fc03 	lsl.w	ip, r2, r3
 80004b8:	fa20 f201 	lsr.w	r2, r0, r1
 80004bc:	fa25 f101 	lsr.w	r1, r5, r1
 80004c0:	409d      	lsls	r5, r3
 80004c2:	432a      	orrs	r2, r5
 80004c4:	ea4f 471c 	mov.w	r7, ip, lsr #16
 80004c8:	fa1f fe8c 	uxth.w	lr, ip
 80004cc:	fbb1 f0f7 	udiv	r0, r1, r7
 80004d0:	fb07 1510 	mls	r5, r7, r0, r1
 80004d4:	0c11      	lsrs	r1, r2, #16
 80004d6:	ea41 4105 	orr.w	r1, r1, r5, lsl #16
 80004da:	fb00 f50e 	mul.w	r5, r0, lr
 80004de:	428d      	cmp	r5, r1
 80004e0:	fa04 f403 	lsl.w	r4, r4, r3
 80004e4:	d908      	bls.n	80004f8 <__udivmoddi4+0x258>
 80004e6:	eb1c 0101 	adds.w	r1, ip, r1
 80004ea:	f100 38ff 	add.w	r8, r0, #4294967295
 80004ee:	d22f      	bcs.n	8000550 <__udivmoddi4+0x2b0>
 80004f0:	428d      	cmp	r5, r1
 80004f2:	d92d      	bls.n	8000550 <__udivmoddi4+0x2b0>
 80004f4:	3802      	subs	r0, #2
 80004f6:	4461      	add	r1, ip
 80004f8:	1b49      	subs	r1, r1, r5
 80004fa:	b292      	uxth	r2, r2
 80004fc:	fbb1 f5f7 	udiv	r5, r1, r7
 8000500:	fb07 1115 	mls	r1, r7, r5, r1
 8000504:	ea42 4201 	orr.w	r2, r2, r1, lsl #16
 8000508:	fb05 f10e 	mul.w	r1, r5, lr
 800050c:	4291      	cmp	r1, r2
 800050e:	d908      	bls.n	8000522 <__udivmoddi4+0x282>
 8000510:	eb1c 0202 	adds.w	r2, ip, r2
 8000514:	f105 38ff 	add.w	r8, r5, #4294967295
 8000518:	d216      	bcs.n	8000548 <__udivmoddi4+0x2a8>
 800051a:	4291      	cmp	r1, r2
 800051c:	d914      	bls.n	8000548 <__udivmoddi4+0x2a8>
 800051e:	3d02      	subs	r5, #2
 8000520:	4462      	add	r2, ip
 8000522:	1a52      	subs	r2, r2, r1
 8000524:	ea45 4100 	orr.w	r1, r5, r0, lsl #16
 8000528:	e738      	b.n	800039c <__udivmoddi4+0xfc>
 800052a:	4631      	mov	r1, r6
 800052c:	4630      	mov	r0, r6
 800052e:	e708      	b.n	8000342 <__udivmoddi4+0xa2>
 8000530:	4639      	mov	r1, r7
 8000532:	e6e6      	b.n	8000302 <__udivmoddi4+0x62>
 8000534:	4610      	mov	r0, r2
 8000536:	e6fb      	b.n	8000330 <__udivmoddi4+0x90>
 8000538:	4548      	cmp	r0, r9
 800053a:	d2a9      	bcs.n	8000490 <__udivmoddi4+0x1f0>
 800053c:	ebb9 0802 	subs.w	r8, r9, r2
 8000540:	eb65 0e0c 	sbc.w	lr, r5, ip
 8000544:	3b01      	subs	r3, #1
 8000546:	e7a3      	b.n	8000490 <__udivmoddi4+0x1f0>
 8000548:	4645      	mov	r5, r8
 800054a:	e7ea      	b.n	8000522 <__udivmoddi4+0x282>
 800054c:	462b      	mov	r3, r5
 800054e:	e794      	b.n	800047a <__udivmoddi4+0x1da>
 8000550:	4640      	mov	r0, r8
 8000552:	e7d1      	b.n	80004f8 <__udivmoddi4+0x258>
 8000554:	46d0      	mov	r8, sl
 8000556:	e77b      	b.n	8000450 <__udivmoddi4+0x1b0>
 8000558:	3d02      	subs	r5, #2
 800055a:	4462      	add	r2, ip
 800055c:	e732      	b.n	80003c4 <__udivmoddi4+0x124>
 800055e:	4608      	mov	r0, r1
 8000560:	e70a      	b.n	8000378 <__udivmoddi4+0xd8>
 8000562:	4464      	add	r4, ip
 8000564:	3802      	subs	r0, #2
 8000566:	e742      	b.n	80003ee <__udivmoddi4+0x14e>

08000568 <__aeabi_idiv0>:
 8000568:	4770      	bx	lr
 800056a:	bf00      	nop

0800056c <SystemClock_Config>:
 800056c:	b530      	push	{r4, r5, lr}
 800056e:	b095      	sub	sp, #84	; 0x54
 8000570:	2210      	movs	r2, #16
 8000572:	2100      	movs	r1, #0
 8000574:	a80a      	add	r0, sp, #40	; 0x28
 8000576:	f003 f980 	bl	800387a <memset>
 800057a:	2214      	movs	r2, #20
 800057c:	2100      	movs	r1, #0
 800057e:	a803      	add	r0, sp, #12
 8000580:	f003 f97b 	bl	800387a <memset>
 8000584:	4b1f      	ldr	r3, [pc, #124]	; (8000604 <SystemClock_Config+0x98>)
 8000586:	2100      	movs	r1, #0
 8000588:	9101      	str	r1, [sp, #4]
 800058a:	6c1a      	ldr	r2, [r3, #64]	; 0x40
 800058c:	f042 5280 	orr.w	r2, r2, #268435456	; 0x10000000
 8000590:	641a      	str	r2, [r3, #64]	; 0x40
 8000592:	6c1b      	ldr	r3, [r3, #64]	; 0x40
 8000594:	f003 5380 	and.w	r3, r3, #268435456	; 0x10000000
 8000598:	9301      	str	r3, [sp, #4]
 800059a:	9b01      	ldr	r3, [sp, #4]
 800059c:	4b1a      	ldr	r3, [pc, #104]	; (8000608 <SystemClock_Config+0x9c>)
 800059e:	9102      	str	r1, [sp, #8]
 80005a0:	681a      	ldr	r2, [r3, #0]
 80005a2:	f442 4280 	orr.w	r2, r2, #16384	; 0x4000
 80005a6:	601a      	str	r2, [r3, #0]
 80005a8:	681b      	ldr	r3, [r3, #0]
 80005aa:	f403 4380 	and.w	r3, r3, #16384	; 0x4000
 80005ae:	9302      	str	r3, [sp, #8]
 80005b0:	9b02      	ldr	r3, [sp, #8]
 80005b2:	2501      	movs	r5, #1
 80005b4:	f44f 3380 	mov.w	r3, #65536	; 0x10000
 80005b8:	2402      	movs	r4, #2
 80005ba:	e9cd 5308 	strd	r5, r3, [sp, #32]
 80005be:	f44f 0380 	mov.w	r3, #4194304	; 0x400000
 80005c2:	e9cd 430e 	strd	r4, r3, [sp, #56]	; 0x38
 80005c6:	2260      	movs	r2, #96	; 0x60
 80005c8:	2304      	movs	r3, #4
 80005ca:	a808      	add	r0, sp, #32
 80005cc:	e9cd 3210 	strd	r3, r2, [sp, #64]	; 0x40
 80005d0:	e9cd 4312 	strd	r4, r3, [sp, #72]	; 0x48
 80005d4:	f001 f87a 	bl	80016cc <HAL_RCC_OscConfig>
 80005d8:	b108      	cbz	r0, 80005de <SystemClock_Config+0x72>
 80005da:	b672      	cpsid	i
 80005dc:	e7fe      	b.n	80005dc <SystemClock_Config+0x70>
 80005de:	230f      	movs	r3, #15
 80005e0:	e9cd 3403 	strd	r3, r4, [sp, #12]
 80005e4:	2280      	movs	r2, #128	; 0x80
 80005e6:	f44f 5380 	mov.w	r3, #4096	; 0x1000
 80005ea:	9007      	str	r0, [sp, #28]
 80005ec:	4629      	mov	r1, r5
 80005ee:	a803      	add	r0, sp, #12
 80005f0:	e9cd 2305 	strd	r2, r3, [sp, #20]
 80005f4:	f001 fa44 	bl	8001a80 <HAL_RCC_ClockConfig>
 80005f8:	b108      	cbz	r0, 80005fe <SystemClock_Config+0x92>
 80005fa:	b672      	cpsid	i
 80005fc:	e7fe      	b.n	80005fc <SystemClock_Config+0x90>
 80005fe:	b015      	add	sp, #84	; 0x54
 8000600:	bd30      	pop	{r4, r5, pc}
 8000602:	bf00      	nop
 8000604:	40023800 	.word	0x40023800
 8000608:	40007000 	.word	0x40007000

0800060c <main>:
 800060c:	b500      	push	{lr}
 800060e:	b08b      	sub	sp, #44	; 0x2c
 8000610:	f000 f99e 	bl	8000950 <HAL_Init>
 8000614:	f7ff ffaa 	bl	800056c <SystemClock_Config>
 8000618:	2214      	movs	r2, #20
 800061a:	2100      	movs	r1, #0
 800061c:	eb0d 0002 	add.w	r0, sp, r2
 8000620:	f003 f92b 	bl	800387a <memset>
 8000624:	2400      	movs	r4, #0
 8000626:	4b2e      	ldr	r3, [pc, #184]	; (80006e0 <main+0xd4>)
 8000628:	9401      	str	r4, [sp, #4]
 800062a:	6b1a      	ldr	r2, [r3, #48]	; 0x30
 800062c:	482d      	ldr	r0, [pc, #180]	; (80006e4 <main+0xd8>)
 800062e:	f042 0280 	orr.w	r2, r2, #128	; 0x80
 8000632:	631a      	str	r2, [r3, #48]	; 0x30
 8000634:	6b1a      	ldr	r2, [r3, #48]	; 0x30
 8000636:	f002 0280 	and.w	r2, r2, #128	; 0x80
 800063a:	9201      	str	r2, [sp, #4]
 800063c:	9a01      	ldr	r2, [sp, #4]
 800063e:	9402      	str	r4, [sp, #8]
 8000640:	6b1a      	ldr	r2, [r3, #48]	; 0x30
 8000642:	f042 0201 	orr.w	r2, r2, #1
 8000646:	631a      	str	r2, [r3, #48]	; 0x30
 8000648:	6b1a      	ldr	r2, [r3, #48]	; 0x30
 800064a:	f002 0201 	and.w	r2, r2, #1
 800064e:	9202      	str	r2, [sp, #8]
 8000650:	9a02      	ldr	r2, [sp, #8]
 8000652:	9403      	str	r4, [sp, #12]
 8000654:	6b1a      	ldr	r2, [r3, #48]	; 0x30
 8000656:	f042 0208 	orr.w	r2, r2, #8
 800065a:	631a      	str	r2, [r3, #48]	; 0x30
 800065c:	6b1a      	ldr	r2, [r3, #48]	; 0x30
 800065e:	f002 0208 	and.w	r2, r2, #8
 8000662:	9203      	str	r2, [sp, #12]
 8000664:	9a03      	ldr	r2, [sp, #12]
 8000666:	9404      	str	r4, [sp, #16]
 8000668:	6b1a      	ldr	r2, [r3, #48]	; 0x30
 800066a:	f042 0204 	orr.w	r2, r2, #4
 800066e:	631a      	str	r2, [r3, #48]	; 0x30
 8000670:	6b1b      	ldr	r3, [r3, #48]	; 0x30
 8000672:	f003 0304 	and.w	r3, r3, #4
 8000676:	4622      	mov	r2, r4
 8000678:	9304      	str	r3, [sp, #16]
 800067a:	f44f 4170 	mov.w	r1, #61440	; 0xf000
 800067e:	9b04      	ldr	r3, [sp, #16]
 8000680:	2501      	movs	r5, #1
 8000682:	f000 fae5 	bl	8000c50 <HAL_GPIO_WritePin>
 8000686:	4818      	ldr	r0, [pc, #96]	; (80006e8 <main+0xdc>)
 8000688:	9407      	str	r4, [sp, #28]
 800068a:	a905      	add	r1, sp, #20
 800068c:	e9cd 5405 	strd	r5, r4, [sp, #20]
 8000690:	f000 fa04 	bl	8000a9c <HAL_GPIO_Init>
 8000694:	f44f 4370 	mov.w	r3, #61440	; 0xf000
 8000698:	4812      	ldr	r0, [pc, #72]	; (80006e4 <main+0xd8>)
 800069a:	a905      	add	r1, sp, #20
 800069c:	e9cd 3505 	strd	r3, r5, [sp, #20]
 80006a0:	e9cd 4407 	strd	r4, r4, [sp, #28]
 80006a4:	f000 f9fa 	bl	8000a9c <HAL_GPIO_Init>
 80006a8:	f002 fddc 	bl	8003264 <MX_USB_DEVICE_Init>
 80006ac:	480f      	ldr	r0, [pc, #60]	; (80006ec <main+0xe0>)
 80006ae:	4a10      	ldr	r2, [pc, #64]	; (80006f0 <main+0xe4>)
 80006b0:	6104      	str	r4, [r0, #16]
 80006b2:	f44f 33e1 	mov.w	r3, #115200	; 0x1c200
 80006b6:	e9c0 2300 	strd	r2, r3, [r0]
 80006ba:	230c      	movs	r3, #12
 80006bc:	e9c0 4402 	strd	r4, r4, [r0, #8]
 80006c0:	e9c0 3405 	strd	r3, r4, [r0, #20]
 80006c4:	61c4      	str	r4, [r0, #28]
 80006c6:	f001 faf9 	bl	8001cbc <HAL_UART_Init>
 80006ca:	b930      	cbnz	r0, 80006da <main+0xce>
 80006cc:	4c09      	ldr	r4, [pc, #36]	; (80006f4 <main+0xe8>)
 80006ce:	4d0a      	ldr	r5, [pc, #40]	; (80006f8 <main+0xec>)
 80006d0:	782b      	ldrb	r3, [r5, #0]
 80006d2:	f854 3023 	ldr.w	r3, [r4, r3, lsl #2]
 80006d6:	4798      	blx	r3
 80006d8:	e7fa      	b.n	80006d0 <main+0xc4>
 80006da:	b672      	cpsid	i
 80006dc:	e7fe      	b.n	80006dc <main+0xd0>
 80006de:	bf00      	nop
 80006e0:	40023800 	.word	0x40023800
 80006e4:	40020c00 	.word	0x40020c00
 80006e8:	40020000 	.word	0x40020000
 80006ec:	200001c8 	.word	0x200001c8
 80006f0:	40004c00 	.word	0x40004c00
 80006f4:	08004500 	.word	0x08004500
 80006f8:	20000214 	.word	0x20000214

080006fc <_write>:
 80006fc:	2000      	movs	r0, #0
 80006fe:	4770      	bx	lr

08000700 <Error_Handler>:
 8000700:	b672      	cpsid	i
 8000702:	e7fe      	b.n	8000702 <Error_Handler+0x2>

08000704 <HAL_MspInit>:
 8000704:	b082      	sub	sp, #8
 8000706:	4b0c      	ldr	r3, [pc, #48]	; (8000738 <HAL_MspInit+0x34>)
 8000708:	2100      	movs	r1, #0
 800070a:	9100      	str	r1, [sp, #0]
 800070c:	6c5a      	ldr	r2, [r3, #68]	; 0x44
 800070e:	f442 4280 	orr.w	r2, r2, #16384	; 0x4000
 8000712:	645a      	str	r2, [r3, #68]	; 0x44
 8000714:	6c5a      	ldr	r2, [r3, #68]	; 0x44
 8000716:	f402 4280 	and.w	r2, r2, #16384	; 0x4000
 800071a:	9200      	str	r2, [sp, #0]
 800071c:	9a00      	ldr	r2, [sp, #0]
 800071e:	9101      	str	r1, [sp, #4]
 8000720:	6c1a      	ldr	r2, [r3, #64]	; 0x40
 8000722:	f042 5280 	orr.w	r2, r2, #268435456	; 0x10000000
 8000726:	641a      	str	r2, [r3, #64]	; 0x40
 8000728:	6c1b      	ldr	r3, [r3, #64]	; 0x40
 800072a:	f003 5380 	and.w	r3, r3, #268435456	; 0x10000000
 800072e:	9301      	str	r3, [sp, #4]
 8000730:	9b01      	ldr	r3, [sp, #4]
 8000732:	b002      	add	sp, #8
 8000734:	4770      	bx	lr
 8000736:	bf00      	nop
 8000738:	40023800 	.word	0x40023800

0800073c <HAL_UART_MspInit>:
 800073c:	b5f0      	push	{r4, r5, r6, r7, lr}
 800073e:	4604      	mov	r4, r0
 8000740:	b089      	sub	sp, #36	; 0x24
 8000742:	2214      	movs	r2, #20
 8000744:	2100      	movs	r1, #0
 8000746:	a803      	add	r0, sp, #12
 8000748:	f003 f897 	bl	800387a <memset>
 800074c:	6822      	ldr	r2, [r4, #0]
 800074e:	4b1e      	ldr	r3, [pc, #120]	; (80007c8 <HAL_UART_MspInit+0x8c>)
 8000750:	429a      	cmp	r2, r3
 8000752:	d136      	bne.n	80007c2 <HAL_UART_MspInit+0x86>
 8000754:	f503 33f6 	add.w	r3, r3, #125952	; 0x1ec00
 8000758:	2400      	movs	r4, #0
 800075a:	9400      	str	r4, [sp, #0]
 800075c:	6c1a      	ldr	r2, [r3, #64]	; 0x40
 800075e:	481b      	ldr	r0, [pc, #108]	; (80007cc <HAL_UART_MspInit+0x90>)
 8000760:	f442 2200 	orr.w	r2, r2, #524288	; 0x80000
 8000764:	641a      	str	r2, [r3, #64]	; 0x40
 8000766:	6c1a      	ldr	r2, [r3, #64]	; 0x40
 8000768:	f402 2200 	and.w	r2, r2, #524288	; 0x80000
 800076c:	9200      	str	r2, [sp, #0]
 800076e:	9a00      	ldr	r2, [sp, #0]
 8000770:	9401      	str	r4, [sp, #4]
 8000772:	6b1a      	ldr	r2, [r3, #48]	; 0x30
 8000774:	f042 0201 	orr.w	r2, r2, #1
 8000778:	631a      	str	r2, [r3, #48]	; 0x30
 800077a:	6b1a      	ldr	r2, [r3, #48]	; 0x30
 800077c:	f002 0201 	and.w	r2, r2, #1
 8000780:	9201      	str	r2, [sp, #4]
 8000782:	9a01      	ldr	r2, [sp, #4]
 8000784:	9402      	str	r4, [sp, #8]
 8000786:	6b1a      	ldr	r2, [r3, #48]	; 0x30
 8000788:	f042 0204 	orr.w	r2, r2, #4
 800078c:	631a      	str	r2, [r3, #48]	; 0x30
 800078e:	6b1b      	ldr	r3, [r3, #48]	; 0x30
 8000790:	f003 0304 	and.w	r3, r3, #4
 8000794:	9302      	str	r3, [sp, #8]
 8000796:	2502      	movs	r5, #2
 8000798:	2703      	movs	r7, #3
 800079a:	2608      	movs	r6, #8
 800079c:	a903      	add	r1, sp, #12
 800079e:	9b02      	ldr	r3, [sp, #8]
 80007a0:	e9cd 5503 	strd	r5, r5, [sp, #12]
 80007a4:	e9cd 7606 	strd	r7, r6, [sp, #24]
 80007a8:	f000 f978 	bl	8000a9c <HAL_GPIO_Init>
 80007ac:	f44f 6380 	mov.w	r3, #1024	; 0x400
 80007b0:	4807      	ldr	r0, [pc, #28]	; (80007d0 <HAL_UART_MspInit+0x94>)
 80007b2:	9607      	str	r6, [sp, #28]
 80007b4:	a903      	add	r1, sp, #12
 80007b6:	e9cd 3503 	strd	r3, r5, [sp, #12]
 80007ba:	e9cd 4705 	strd	r4, r7, [sp, #20]
 80007be:	f000 f96d 	bl	8000a9c <HAL_GPIO_Init>
 80007c2:	b009      	add	sp, #36	; 0x24
 80007c4:	bdf0      	pop	{r4, r5, r6, r7, pc}
 80007c6:	bf00      	nop
 80007c8:	40004c00 	.word	0x40004c00
 80007cc:	40020000 	.word	0x40020000
 80007d0:	40020800 	.word	0x40020800

080007d4 <NMI_Handler>:
 80007d4:	e7fe      	b.n	80007d4 <NMI_Handler>

080007d6 <HardFault_Handler>:
 80007d6:	e7fe      	b.n	80007d6 <HardFault_Handler>

080007d8 <MemManage_Handler>:
 80007d8:	e7fe      	b.n	80007d8 <MemManage_Handler>

080007da <BusFault_Handler>:
 80007da:	e7fe      	b.n	80007da <BusFault_Handler>

080007dc <UsageFault_Handler>:
 80007dc:	e7fe      	b.n	80007dc <UsageFault_Handler>

080007de <SVC_Handler>:
 80007de:	4770      	bx	lr

080007e0 <DebugMon_Handler>:
 80007e0:	4770      	bx	lr

080007e2 <PendSV_Handler>:
 80007e2:	4770      	bx	lr

080007e4 <SysTick_Handler>:
 80007e4:	f000 b8ce 	b.w	8000984 <HAL_IncTick>

080007e8 <OTG_FS_IRQHandler>:
 80007e8:	4801      	ldr	r0, [pc, #4]	; (80007f0 <OTG_FS_IRQHandler+0x8>)
 80007ea:	f000 bbff 	b.w	8000fec <HAL_PCD_IRQHandler>
 80007ee:	bf00      	nop
 80007f0:	200006fc 	.word	0x200006fc

080007f4 <_read>:
 80007f4:	b570      	push	{r4, r5, r6, lr}
 80007f6:	460d      	mov	r5, r1
 80007f8:	4614      	mov	r4, r2
 80007fa:	460e      	mov	r6, r1
 80007fc:	1b73      	subs	r3, r6, r5
 80007fe:	429c      	cmp	r4, r3
 8000800:	dc01      	bgt.n	8000806 <_read+0x12>
 8000802:	4620      	mov	r0, r4
 8000804:	bd70      	pop	{r4, r5, r6, pc}
 8000806:	f3af 8000 	nop.w
 800080a:	f806 0b01 	strb.w	r0, [r6], #1
 800080e:	e7f5      	b.n	80007fc <_read+0x8>

08000810 <_close>:
 8000810:	f04f 30ff 	mov.w	r0, #4294967295
 8000814:	4770      	bx	lr

08000816 <_fstat>:
 8000816:	f44f 5300 	mov.w	r3, #8192	; 0x2000
 800081a:	604b      	str	r3, [r1, #4]
 800081c:	2000      	movs	r0, #0
 800081e:	4770      	bx	lr

08000820 <_isatty>:
 8000820:	2001      	movs	r0, #1
 8000822:	4770      	bx	lr

08000824 <_lseek>:
 8000824:	2000      	movs	r0, #0
 8000826:	4770      	bx	lr

08000828 <_sbrk>:
 8000828:	4a0b      	ldr	r2, [pc, #44]	; (8000858 <_sbrk+0x30>)
 800082a:	6811      	ldr	r1, [r2, #0]
 800082c:	b510      	push	{r4, lr}
 800082e:	4603      	mov	r3, r0
 8000830:	b909      	cbnz	r1, 8000836 <_sbrk+0xe>
 8000832:	490a      	ldr	r1, [pc, #40]	; (800085c <_sbrk+0x34>)
 8000834:	6011      	str	r1, [r2, #0]
 8000836:	6810      	ldr	r0, [r2, #0]
 8000838:	4909      	ldr	r1, [pc, #36]	; (8000860 <_sbrk+0x38>)
 800083a:	4c0a      	ldr	r4, [pc, #40]	; (8000864 <_sbrk+0x3c>)
 800083c:	4403      	add	r3, r0
 800083e:	1b09      	subs	r1, r1, r4
 8000840:	428b      	cmp	r3, r1
 8000842:	d906      	bls.n	8000852 <_sbrk+0x2a>
 8000844:	f003 f868 	bl	8003918 <__errno>
 8000848:	230c      	movs	r3, #12
 800084a:	6003      	str	r3, [r0, #0]
 800084c:	f04f 30ff 	mov.w	r0, #4294967295
 8000850:	bd10      	pop	{r4, pc}
 8000852:	6013      	str	r3, [r2, #0]
 8000854:	e7fc      	b.n	8000850 <_sbrk+0x28>
 8000856:	bf00      	nop
 8000858:	20000210 	.word	0x20000210
 800085c:	20000d88 	.word	0x20000d88
 8000860:	20020000 	.word	0x20020000
 8000864:	00000400 	.word	0x00000400

08000868 <SystemInit>:
 8000868:	4a03      	ldr	r2, [pc, #12]	; (8000878 <SystemInit+0x10>)
 800086a:	f8d2 3088 	ldr.w	r3, [r2, #136]	; 0x88
 800086e:	f443 0370 	orr.w	r3, r3, #15728640	; 0xf00000
 8000872:	f8c2 3088 	str.w	r3, [r2, #136]	; 0x88
 8000876:	4770      	bx	lr
 8000878:	e000ed00 	.word	0xe000ed00

0800087c <Receive_Key>:
 800087c:	4770      	bx	lr
	...

08000880 <no_action>:
 8000880:	b538      	push	{r3, r4, r5, lr}
 8000882:	4c07      	ldr	r4, [pc, #28]	; (80008a0 <no_action+0x20>)
 8000884:	4d07      	ldr	r5, [pc, #28]	; (80008a4 <no_action+0x24>)
 8000886:	7823      	ldrb	r3, [r4, #0]
 8000888:	b103      	cbz	r3, 800088c <no_action+0xc>
 800088a:	bd38      	pop	{r3, r4, r5, pc}
 800088c:	210a      	movs	r1, #10
 800088e:	4628      	mov	r0, r5
 8000890:	f002 ff9e 	bl	80037d0 <iprintf>
 8000894:	f44f 707a 	mov.w	r0, #1000	; 0x3e8
 8000898:	f000 f886 	bl	80009a8 <HAL_Delay>
 800089c:	e7f3      	b.n	8000886 <no_action+0x6>
 800089e:	bf00      	nop
 80008a0:	20000214 	.word	0x20000214
 80008a4:	080044ec 	.word	0x080044ec

080008a8 <Send_Status>:
 80008a8:	4770      	bx	lr

080008aa <Send_Key>:
 80008aa:	4770      	bx	lr

080008ac <Receive_String>:
 80008ac:	4770      	bx	lr

080008ae <Send_String>:
 80008ae:	4770      	bx	lr

080008b0 <send_fingerprint>:
 80008b0:	4770      	bx	lr
	...

080008b4 <Reset_Handler>:
 80008b4:	f8df d034 	ldr.w	sp, [pc, #52]	; 80008ec <LoopFillZerobss+0xe>
 80008b8:	f7ff ffd6 	bl	8000868 <SystemInit>
 80008bc:	480c      	ldr	r0, [pc, #48]	; (80008f0 <LoopFillZerobss+0x12>)
 80008be:	490d      	ldr	r1, [pc, #52]	; (80008f4 <LoopFillZerobss+0x16>)
 80008c0:	4a0d      	ldr	r2, [pc, #52]	; (80008f8 <LoopFillZerobss+0x1a>)
 80008c2:	2300      	movs	r3, #0
 80008c4:	e002      	b.n	80008cc <LoopCopyDataInit>

080008c6 <CopyDataInit>:
 80008c6:	58d4      	ldr	r4, [r2, r3]
 80008c8:	50c4      	str	r4, [r0, r3]
 80008ca:	3304      	adds	r3, #4

080008cc <LoopCopyDataInit>:
 80008cc:	18c4      	adds	r4, r0, r3
 80008ce:	428c      	cmp	r4, r1
 80008d0:	d3f9      	bcc.n	80008c6 <CopyDataInit>
 80008d2:	4a0a      	ldr	r2, [pc, #40]	; (80008fc <LoopFillZerobss+0x1e>)
 80008d4:	4c0a      	ldr	r4, [pc, #40]	; (8000900 <LoopFillZerobss+0x22>)
 80008d6:	2300      	movs	r3, #0
 80008d8:	e001      	b.n	80008de <LoopFillZerobss>

080008da <FillZerobss>:
 80008da:	6013      	str	r3, [r2, #0]
 80008dc:	3204      	adds	r2, #4

080008de <LoopFillZerobss>:
 80008de:	42a2      	cmp	r2, r4
 80008e0:	d3fb      	bcc.n	80008da <FillZerobss>
 80008e2:	f003 f81f 	bl	8003924 <__libc_init_array>
 80008e6:	f7ff fe91 	bl	800060c <main>
 80008ea:	4770      	bx	lr
 80008ec:	20020000 	.word	0x20020000
 80008f0:	20000000 	.word	0x20000000
 80008f4:	200001ac 	.word	0x200001ac
 80008f8:	080045a0 	.word	0x080045a0
 80008fc:	200001ac 	.word	0x200001ac
 8000900:	20000d84 	.word	0x20000d84

08000904 <ADC_IRQHandler>:
 8000904:	e7fe      	b.n	8000904 <ADC_IRQHandler>
	...

08000908 <HAL_InitTick>:
 8000908:	b538      	push	{r3, r4, r5, lr}
 800090a:	4b0e      	ldr	r3, [pc, #56]	; (8000944 <HAL_InitTick+0x3c>)
 800090c:	781a      	ldrb	r2, [r3, #0]
 800090e:	f44f 737a 	mov.w	r3, #1000	; 0x3e8
 8000912:	fbb3 f3f2 	udiv	r3, r3, r2
 8000916:	4a0c      	ldr	r2, [pc, #48]	; (8000948 <HAL_InitTick+0x40>)
 8000918:	4605      	mov	r5, r0
 800091a:	6810      	ldr	r0, [r2, #0]
 800091c:	fbb0 f0f3 	udiv	r0, r0, r3
 8000920:	f000 f8a8 	bl	8000a74 <HAL_SYSTICK_Config>
 8000924:	4604      	mov	r4, r0
 8000926:	b958      	cbnz	r0, 8000940 <HAL_InitTick+0x38>
 8000928:	2d0f      	cmp	r5, #15
 800092a:	d809      	bhi.n	8000940 <HAL_InitTick+0x38>
 800092c:	4602      	mov	r2, r0
 800092e:	4629      	mov	r1, r5
 8000930:	f04f 30ff 	mov.w	r0, #4294967295
 8000934:	f000 f85e 	bl	80009f4 <HAL_NVIC_SetPriority>
 8000938:	4b04      	ldr	r3, [pc, #16]	; (800094c <HAL_InitTick+0x44>)
 800093a:	4620      	mov	r0, r4
 800093c:	601d      	str	r5, [r3, #0]
 800093e:	bd38      	pop	{r3, r4, r5, pc}
 8000940:	2001      	movs	r0, #1
 8000942:	e7fc      	b.n	800093e <HAL_InitTick+0x36>
 8000944:	20000004 	.word	0x20000004
 8000948:	20000000 	.word	0x20000000
 800094c:	20000008 	.word	0x20000008

08000950 <HAL_Init>:
 8000950:	b508      	push	{r3, lr}
 8000952:	4b0b      	ldr	r3, [pc, #44]	; (8000980 <HAL_Init+0x30>)
 8000954:	681a      	ldr	r2, [r3, #0]
 8000956:	f442 7200 	orr.w	r2, r2, #512	; 0x200
 800095a:	601a      	str	r2, [r3, #0]
 800095c:	681a      	ldr	r2, [r3, #0]
 800095e:	f442 6280 	orr.w	r2, r2, #1024	; 0x400
 8000962:	601a      	str	r2, [r3, #0]
 8000964:	681a      	ldr	r2, [r3, #0]
 8000966:	f442 7280 	orr.w	r2, r2, #256	; 0x100
 800096a:	601a      	str	r2, [r3, #0]
 800096c:	2003      	movs	r0, #3
 800096e:	f000 f82f 	bl	80009d0 <HAL_NVIC_SetPriorityGrouping>
 8000972:	200f      	movs	r0, #15
 8000974:	f7ff ffc8 	bl	8000908 <HAL_InitTick>
 8000978:	f7ff fec4 	bl	8000704 <HAL_MspInit>
 800097c:	2000      	movs	r0, #0
 800097e:	bd08      	pop	{r3, pc}
 8000980:	40023c00 	.word	0x40023c00

08000984 <HAL_IncTick>:
 8000984:	4a03      	ldr	r2, [pc, #12]	; (8000994 <HAL_IncTick+0x10>)
 8000986:	4b04      	ldr	r3, [pc, #16]	; (8000998 <HAL_IncTick+0x14>)
 8000988:	6811      	ldr	r1, [r2, #0]
 800098a:	781b      	ldrb	r3, [r3, #0]
 800098c:	440b      	add	r3, r1
 800098e:	6013      	str	r3, [r2, #0]
 8000990:	4770      	bx	lr
 8000992:	bf00      	nop
 8000994:	20000218 	.word	0x20000218
 8000998:	20000004 	.word	0x20000004

0800099c <HAL_GetTick>:
 800099c:	4b01      	ldr	r3, [pc, #4]	; (80009a4 <HAL_GetTick+0x8>)
 800099e:	6818      	ldr	r0, [r3, #0]
 80009a0:	4770      	bx	lr
 80009a2:	bf00      	nop
 80009a4:	20000218 	.word	0x20000218

080009a8 <HAL_Delay>:
 80009a8:	b538      	push	{r3, r4, r5, lr}
 80009aa:	4604      	mov	r4, r0
 80009ac:	f7ff fff6 	bl	800099c <HAL_GetTick>
 80009b0:	1c63      	adds	r3, r4, #1
 80009b2:	bf1c      	itt	ne
 80009b4:	4b05      	ldrne	r3, [pc, #20]	; (80009cc <HAL_Delay+0x24>)
 80009b6:	781b      	ldrbne	r3, [r3, #0]
 80009b8:	4605      	mov	r5, r0
 80009ba:	bf18      	it	ne
 80009bc:	18e4      	addne	r4, r4, r3
 80009be:	f7ff ffed 	bl	800099c <HAL_GetTick>
 80009c2:	1b43      	subs	r3, r0, r5
 80009c4:	42a3      	cmp	r3, r4
 80009c6:	d3fa      	bcc.n	80009be <HAL_Delay+0x16>
 80009c8:	bd38      	pop	{r3, r4, r5, pc}
 80009ca:	bf00      	nop
 80009cc:	20000004 	.word	0x20000004

080009d0 <HAL_NVIC_SetPriorityGrouping>:
 80009d0:	4907      	ldr	r1, [pc, #28]	; (80009f0 <HAL_NVIC_SetPriorityGrouping+0x20>)
 80009d2:	68ca      	ldr	r2, [r1, #12]
 80009d4:	f422 62e0 	bic.w	r2, r2, #1792	; 0x700
 80009d8:	0203      	lsls	r3, r0, #8
 80009da:	0412      	lsls	r2, r2, #16
 80009dc:	f403 63e0 	and.w	r3, r3, #1792	; 0x700
 80009e0:	0c12      	lsrs	r2, r2, #16
 80009e2:	4313      	orrs	r3, r2
 80009e4:	f043 63bf 	orr.w	r3, r3, #100139008	; 0x5f80000
 80009e8:	f443 3300 	orr.w	r3, r3, #131072	; 0x20000
 80009ec:	60cb      	str	r3, [r1, #12]
 80009ee:	4770      	bx	lr
 80009f0:	e000ed00 	.word	0xe000ed00

080009f4 <HAL_NVIC_SetPriority>:
 80009f4:	4b16      	ldr	r3, [pc, #88]	; (8000a50 <HAL_NVIC_SetPriority+0x5c>)
 80009f6:	b530      	push	{r4, r5, lr}
 80009f8:	68dc      	ldr	r4, [r3, #12]
 80009fa:	f3c4 2402 	ubfx	r4, r4, #8, #3
 80009fe:	f1c4 0307 	rsb	r3, r4, #7
 8000a02:	1d25      	adds	r5, r4, #4
 8000a04:	2b04      	cmp	r3, #4
 8000a06:	bf28      	it	cs
 8000a08:	2304      	movcs	r3, #4
 8000a0a:	2d06      	cmp	r5, #6
 8000a0c:	f04f 35ff 	mov.w	r5, #4294967295
 8000a10:	bf8c      	ite	hi
 8000a12:	3c03      	subhi	r4, #3
 8000a14:	2400      	movls	r4, #0
 8000a16:	fa05 f303 	lsl.w	r3, r5, r3
 8000a1a:	ea21 0303 	bic.w	r3, r1, r3
 8000a1e:	40a5      	lsls	r5, r4
 8000a20:	ea22 0205 	bic.w	r2, r2, r5
 8000a24:	40a3      	lsls	r3, r4
 8000a26:	2800      	cmp	r0, #0
 8000a28:	ea43 0302 	orr.w	r3, r3, r2
 8000a2c:	bfac      	ite	ge
 8000a2e:	f100 4060 	addge.w	r0, r0, #3758096384	; 0xe0000000
 8000a32:	4a08      	ldrlt	r2, [pc, #32]	; (8000a54 <HAL_NVIC_SetPriority+0x60>)
 8000a34:	ea4f 1303 	mov.w	r3, r3, lsl #4
 8000a38:	bfb8      	it	lt
 8000a3a:	f000 000f 	andlt.w	r0, r0, #15
 8000a3e:	b2db      	uxtb	r3, r3
 8000a40:	bfaa      	itet	ge
 8000a42:	f500 4061 	addge.w	r0, r0, #57600	; 0xe100
 8000a46:	5413      	strblt	r3, [r2, r0]
 8000a48:	f880 3300 	strbge.w	r3, [r0, #768]	; 0x300
 8000a4c:	bd30      	pop	{r4, r5, pc}
 8000a4e:	bf00      	nop
 8000a50:	e000ed00 	.word	0xe000ed00
 8000a54:	e000ed14 	.word	0xe000ed14

08000a58 <HAL_NVIC_EnableIRQ>:
 8000a58:	2800      	cmp	r0, #0
 8000a5a:	db07      	blt.n	8000a6c <HAL_NVIC_EnableIRQ+0x14>
 8000a5c:	4a04      	ldr	r2, [pc, #16]	; (8000a70 <HAL_NVIC_EnableIRQ+0x18>)
 8000a5e:	0941      	lsrs	r1, r0, #5
 8000a60:	2301      	movs	r3, #1
 8000a62:	f000 001f 	and.w	r0, r0, #31
 8000a66:	4083      	lsls	r3, r0
 8000a68:	f842 3021 	str.w	r3, [r2, r1, lsl #2]
 8000a6c:	4770      	bx	lr
 8000a6e:	bf00      	nop
 8000a70:	e000e100 	.word	0xe000e100

08000a74 <HAL_SYSTICK_Config>:
 8000a74:	3801      	subs	r0, #1
 8000a76:	f1b0 7f80 	cmp.w	r0, #16777216	; 0x1000000
 8000a7a:	d20b      	bcs.n	8000a94 <HAL_SYSTICK_Config+0x20>
 8000a7c:	f04f 23e0 	mov.w	r3, #3758153728	; 0xe000e000
 8000a80:	4a05      	ldr	r2, [pc, #20]	; (8000a98 <HAL_SYSTICK_Config+0x24>)
 8000a82:	6158      	str	r0, [r3, #20]
 8000a84:	21f0      	movs	r1, #240	; 0xf0
 8000a86:	f882 1023 	strb.w	r1, [r2, #35]	; 0x23
 8000a8a:	2000      	movs	r0, #0
 8000a8c:	2207      	movs	r2, #7
 8000a8e:	6198      	str	r0, [r3, #24]
 8000a90:	611a      	str	r2, [r3, #16]
 8000a92:	4770      	bx	lr
 8000a94:	2001      	movs	r0, #1
 8000a96:	4770      	bx	lr
 8000a98:	e000ed00 	.word	0xe000ed00

08000a9c <HAL_GPIO_Init>:
 8000a9c:	e92d 4ff7 	stmdb	sp!, {r0, r1, r2, r4, r5, r6, r7, r8, r9, sl, fp, lr}
 8000aa0:	f8df 91a8 	ldr.w	r9, [pc, #424]	; 8000c4c <HAL_GPIO_Init+0x1b0>
 8000aa4:	4a67      	ldr	r2, [pc, #412]	; (8000c44 <HAL_GPIO_Init+0x1a8>)
 8000aa6:	2300      	movs	r3, #0
 8000aa8:	680d      	ldr	r5, [r1, #0]
 8000aaa:	2401      	movs	r4, #1
 8000aac:	409c      	lsls	r4, r3
 8000aae:	ea04 0c05 	and.w	ip, r4, r5
 8000ab2:	43ac      	bics	r4, r5
 8000ab4:	f040 80b1 	bne.w	8000c1a <HAL_GPIO_Init+0x17e>
 8000ab8:	684d      	ldr	r5, [r1, #4]
 8000aba:	f005 0403 	and.w	r4, r5, #3
 8000abe:	ea4f 0843 	mov.w	r8, r3, lsl #1
 8000ac2:	2603      	movs	r6, #3
 8000ac4:	1e67      	subs	r7, r4, #1
 8000ac6:	fa06 f608 	lsl.w	r6, r6, r8
 8000aca:	2f01      	cmp	r7, #1
 8000acc:	ea6f 0606 	mvn.w	r6, r6
 8000ad0:	d834      	bhi.n	8000b3c <HAL_GPIO_Init+0xa0>
 8000ad2:	6887      	ldr	r7, [r0, #8]
 8000ad4:	ea07 0e06 	and.w	lr, r7, r6
 8000ad8:	68cf      	ldr	r7, [r1, #12]
 8000ada:	fa07 f708 	lsl.w	r7, r7, r8
 8000ade:	ea47 070e 	orr.w	r7, r7, lr
 8000ae2:	6087      	str	r7, [r0, #8]
 8000ae4:	6847      	ldr	r7, [r0, #4]
 8000ae6:	ea27 0e0c 	bic.w	lr, r7, ip
 8000aea:	f3c5 1700 	ubfx	r7, r5, #4, #1
 8000aee:	409f      	lsls	r7, r3
 8000af0:	ea47 070e 	orr.w	r7, r7, lr
 8000af4:	6047      	str	r7, [r0, #4]
 8000af6:	68c7      	ldr	r7, [r0, #12]
 8000af8:	ea07 0e06 	and.w	lr, r7, r6
 8000afc:	688f      	ldr	r7, [r1, #8]
 8000afe:	fa07 f708 	lsl.w	r7, r7, r8
 8000b02:	ea47 070e 	orr.w	r7, r7, lr
 8000b06:	2c02      	cmp	r4, #2
 8000b08:	60c7      	str	r7, [r0, #12]
 8000b0a:	d119      	bne.n	8000b40 <HAL_GPIO_Init+0xa4>
 8000b0c:	ea4f 0ad3 	mov.w	sl, r3, lsr #3
 8000b10:	eb00 0a8a 	add.w	sl, r0, sl, lsl #2
 8000b14:	f003 0b07 	and.w	fp, r3, #7
 8000b18:	f8da 7020 	ldr.w	r7, [sl, #32]
 8000b1c:	ea4f 0b8b 	mov.w	fp, fp, lsl #2
 8000b20:	f04f 0e0f 	mov.w	lr, #15
 8000b24:	fa0e fe0b 	lsl.w	lr, lr, fp
 8000b28:	ea27 0e0e 	bic.w	lr, r7, lr
 8000b2c:	690f      	ldr	r7, [r1, #16]
 8000b2e:	fa07 f70b 	lsl.w	r7, r7, fp
 8000b32:	ea47 070e 	orr.w	r7, r7, lr
 8000b36:	f8ca 7020 	str.w	r7, [sl, #32]
 8000b3a:	e001      	b.n	8000b40 <HAL_GPIO_Init+0xa4>
 8000b3c:	2c03      	cmp	r4, #3
 8000b3e:	d1da      	bne.n	8000af6 <HAL_GPIO_Init+0x5a>
 8000b40:	6807      	ldr	r7, [r0, #0]
 8000b42:	fa04 f408 	lsl.w	r4, r4, r8
 8000b46:	4037      	ands	r7, r6
 8000b48:	433c      	orrs	r4, r7
 8000b4a:	f415 3f40 	tst.w	r5, #196608	; 0x30000
 8000b4e:	6004      	str	r4, [r0, #0]
 8000b50:	d063      	beq.n	8000c1a <HAL_GPIO_Init+0x17e>
 8000b52:	f04f 0a00 	mov.w	sl, #0
 8000b56:	f8cd a004 	str.w	sl, [sp, #4]
 8000b5a:	f8d9 6044 	ldr.w	r6, [r9, #68]	; 0x44
 8000b5e:	4c3a      	ldr	r4, [pc, #232]	; (8000c48 <HAL_GPIO_Init+0x1ac>)
 8000b60:	f446 4680 	orr.w	r6, r6, #16384	; 0x4000
 8000b64:	f8c9 6044 	str.w	r6, [r9, #68]	; 0x44
 8000b68:	f8d9 6044 	ldr.w	r6, [r9, #68]	; 0x44
 8000b6c:	f406 4680 	and.w	r6, r6, #16384	; 0x4000
 8000b70:	9601      	str	r6, [sp, #4]
 8000b72:	9e01      	ldr	r6, [sp, #4]
 8000b74:	f023 0603 	bic.w	r6, r3, #3
 8000b78:	f106 4680 	add.w	r6, r6, #1073741824	; 0x40000000
 8000b7c:	f506 369c 	add.w	r6, r6, #79872	; 0x13800
 8000b80:	f003 0e03 	and.w	lr, r3, #3
 8000b84:	f8d6 8008 	ldr.w	r8, [r6, #8]
 8000b88:	ea4f 0e8e 	mov.w	lr, lr, lsl #2
 8000b8c:	270f      	movs	r7, #15
 8000b8e:	fa07 f70e 	lsl.w	r7, r7, lr
 8000b92:	42a0      	cmp	r0, r4
 8000b94:	ea28 0707 	bic.w	r7, r8, r7
 8000b98:	d046      	beq.n	8000c28 <HAL_GPIO_Init+0x18c>
 8000b9a:	f504 6480 	add.w	r4, r4, #1024	; 0x400
 8000b9e:	42a0      	cmp	r0, r4
 8000ba0:	d044      	beq.n	8000c2c <HAL_GPIO_Init+0x190>
 8000ba2:	f504 6480 	add.w	r4, r4, #1024	; 0x400
 8000ba6:	42a0      	cmp	r0, r4
 8000ba8:	d042      	beq.n	8000c30 <HAL_GPIO_Init+0x194>
 8000baa:	f504 6480 	add.w	r4, r4, #1024	; 0x400
 8000bae:	42a0      	cmp	r0, r4
 8000bb0:	d040      	beq.n	8000c34 <HAL_GPIO_Init+0x198>
 8000bb2:	f504 6480 	add.w	r4, r4, #1024	; 0x400
 8000bb6:	42a0      	cmp	r0, r4
 8000bb8:	d03e      	beq.n	8000c38 <HAL_GPIO_Init+0x19c>
 8000bba:	f504 6480 	add.w	r4, r4, #1024	; 0x400
 8000bbe:	42a0      	cmp	r0, r4
 8000bc0:	d03c      	beq.n	8000c3c <HAL_GPIO_Init+0x1a0>
 8000bc2:	f504 6480 	add.w	r4, r4, #1024	; 0x400
 8000bc6:	42a0      	cmp	r0, r4
 8000bc8:	d03a      	beq.n	8000c40 <HAL_GPIO_Init+0x1a4>
 8000bca:	f504 6480 	add.w	r4, r4, #1024	; 0x400
 8000bce:	42a0      	cmp	r0, r4
 8000bd0:	bf0c      	ite	eq
 8000bd2:	2407      	moveq	r4, #7
 8000bd4:	2408      	movne	r4, #8
 8000bd6:	fa04 f40e 	lsl.w	r4, r4, lr
 8000bda:	433c      	orrs	r4, r7
 8000bdc:	60b4      	str	r4, [r6, #8]
 8000bde:	6894      	ldr	r4, [r2, #8]
 8000be0:	ea6f 060c 	mvn.w	r6, ip
 8000be4:	02ef      	lsls	r7, r5, #11
 8000be6:	bf54      	ite	pl
 8000be8:	4034      	andpl	r4, r6
 8000bea:	ea4c 0404 	orrmi.w	r4, ip, r4
 8000bee:	6094      	str	r4, [r2, #8]
 8000bf0:	68d4      	ldr	r4, [r2, #12]
 8000bf2:	02af      	lsls	r7, r5, #10
 8000bf4:	bf54      	ite	pl
 8000bf6:	4034      	andpl	r4, r6
 8000bf8:	ea4c 0404 	orrmi.w	r4, ip, r4
 8000bfc:	60d4      	str	r4, [r2, #12]
 8000bfe:	6854      	ldr	r4, [r2, #4]
 8000c00:	03af      	lsls	r7, r5, #14
 8000c02:	bf54      	ite	pl
 8000c04:	4034      	andpl	r4, r6
 8000c06:	ea4c 0404 	orrmi.w	r4, ip, r4
 8000c0a:	6054      	str	r4, [r2, #4]
 8000c0c:	6814      	ldr	r4, [r2, #0]
 8000c0e:	03ed      	lsls	r5, r5, #15
 8000c10:	bf54      	ite	pl
 8000c12:	4034      	andpl	r4, r6
 8000c14:	ea4c 0404 	orrmi.w	r4, ip, r4
 8000c18:	6014      	str	r4, [r2, #0]
 8000c1a:	3301      	adds	r3, #1
 8000c1c:	2b10      	cmp	r3, #16
 8000c1e:	f47f af43 	bne.w	8000aa8 <HAL_GPIO_Init+0xc>
 8000c22:	b003      	add	sp, #12
 8000c24:	e8bd 8ff0 	ldmia.w	sp!, {r4, r5, r6, r7, r8, r9, sl, fp, pc}
 8000c28:	4654      	mov	r4, sl
 8000c2a:	e7d4      	b.n	8000bd6 <HAL_GPIO_Init+0x13a>
 8000c2c:	2401      	movs	r4, #1
 8000c2e:	e7d2      	b.n	8000bd6 <HAL_GPIO_Init+0x13a>
 8000c30:	2402      	movs	r4, #2
 8000c32:	e7d0      	b.n	8000bd6 <HAL_GPIO_Init+0x13a>
 8000c34:	2403      	movs	r4, #3
 8000c36:	e7ce      	b.n	8000bd6 <HAL_GPIO_Init+0x13a>
 8000c38:	2404      	movs	r4, #4
 8000c3a:	e7cc      	b.n	8000bd6 <HAL_GPIO_Init+0x13a>
 8000c3c:	2405      	movs	r4, #5
 8000c3e:	e7ca      	b.n	8000bd6 <HAL_GPIO_Init+0x13a>
 8000c40:	2406      	movs	r4, #6
 8000c42:	e7c8      	b.n	8000bd6 <HAL_GPIO_Init+0x13a>
 8000c44:	40013c00 	.word	0x40013c00
 8000c48:	40020000 	.word	0x40020000
 8000c4c:	40023800 	.word	0x40023800

08000c50 <HAL_GPIO_WritePin>:
 8000c50:	b10a      	cbz	r2, 8000c56 <HAL_GPIO_WritePin+0x6>
 8000c52:	6181      	str	r1, [r0, #24]
 8000c54:	4770      	bx	lr
 8000c56:	0409      	lsls	r1, r1, #16
 8000c58:	e7fb      	b.n	8000c52 <HAL_GPIO_WritePin+0x2>

08000c5a <HAL_GPIO_TogglePin>:
 8000c5a:	6943      	ldr	r3, [r0, #20]
 8000c5c:	ea01 0203 	and.w	r2, r1, r3
 8000c60:	ea21 0103 	bic.w	r1, r1, r3
 8000c64:	ea41 4102 	orr.w	r1, r1, r2, lsl #16
 8000c68:	6181      	str	r1, [r0, #24]
 8000c6a:	4770      	bx	lr

08000c6c <HAL_PCD_Init>:
 8000c6c:	b5f7      	push	{r0, r1, r2, r4, r5, r6, r7, lr}
 8000c6e:	4604      	mov	r4, r0
 8000c70:	b310      	cbz	r0, 8000cb8 <HAL_PCD_Init+0x4c>
 8000c72:	f890 3495 	ldrb.w	r3, [r0, #1173]	; 0x495
 8000c76:	6805      	ldr	r5, [r0, #0]
 8000c78:	f003 02ff 	and.w	r2, r3, #255	; 0xff
 8000c7c:	b91b      	cbnz	r3, 8000c86 <HAL_PCD_Init+0x1a>
 8000c7e:	f880 2494 	strb.w	r2, [r0, #1172]	; 0x494
 8000c82:	f002 fb9f 	bl	80033c4 <HAL_PCD_MspInit>
 8000c86:	2303      	movs	r3, #3
 8000c88:	f1b5 4fa0 	cmp.w	r5, #1342177280	; 0x50000000
 8000c8c:	f884 3495 	strb.w	r3, [r4, #1173]	; 0x495
 8000c90:	bf04      	itt	eq
 8000c92:	2300      	moveq	r3, #0
 8000c94:	71a3      	strbeq	r3, [r4, #6]
 8000c96:	6820      	ldr	r0, [r4, #0]
 8000c98:	f001 f91c 	bl	8001ed4 <USB_DisableGlobalInt>
 8000c9c:	7c23      	ldrb	r3, [r4, #16]
 8000c9e:	f88d 3000 	strb.w	r3, [sp]
 8000ca2:	1d25      	adds	r5, r4, #4
 8000ca4:	e895 000e 	ldmia.w	r5, {r1, r2, r3}
 8000ca8:	6820      	ldr	r0, [r4, #0]
 8000caa:	f001 f859 	bl	8001d60 <USB_CoreInit>
 8000cae:	4601      	mov	r1, r0
 8000cb0:	b120      	cbz	r0, 8000cbc <HAL_PCD_Init+0x50>
 8000cb2:	2302      	movs	r3, #2
 8000cb4:	f884 3495 	strb.w	r3, [r4, #1173]	; 0x495
 8000cb8:	2501      	movs	r5, #1
 8000cba:	e046      	b.n	8000d4a <HAL_PCD_Init+0xde>
 8000cbc:	6820      	ldr	r0, [r4, #0]
 8000cbe:	f001 f90f 	bl	8001ee0 <USB_SetCurrentMode>
 8000cc2:	2800      	cmp	r0, #0
 8000cc4:	d1f5      	bne.n	8000cb2 <HAL_PCD_Init+0x46>
 8000cc6:	7926      	ldrb	r6, [r4, #4]
 8000cc8:	f104 0314 	add.w	r3, r4, #20
 8000ccc:	2701      	movs	r7, #1
 8000cce:	4602      	mov	r2, r0
 8000cd0:	b2c1      	uxtb	r1, r0
 8000cd2:	428e      	cmp	r6, r1
 8000cd4:	f103 0324 	add.w	r3, r3, #36	; 0x24
 8000cd8:	d817      	bhi.n	8000d0a <HAL_PCD_Init+0x9e>
 8000cda:	2100      	movs	r1, #0
 8000cdc:	f504 7315 	add.w	r3, r4, #596	; 0x254
 8000ce0:	460a      	mov	r2, r1
 8000ce2:	b2c8      	uxtb	r0, r1
 8000ce4:	4286      	cmp	r6, r0
 8000ce6:	f103 0324 	add.w	r3, r3, #36	; 0x24
 8000cea:	d81c      	bhi.n	8000d26 <HAL_PCD_Init+0xba>
 8000cec:	7c23      	ldrb	r3, [r4, #16]
 8000cee:	f88d 3000 	strb.w	r3, [sp]
 8000cf2:	e895 000e 	ldmia.w	r5, {r1, r2, r3}
 8000cf6:	6820      	ldr	r0, [r4, #0]
 8000cf8:	f001 f96e 	bl	8001fd8 <USB_DevInit>
 8000cfc:	2301      	movs	r3, #1
 8000cfe:	4605      	mov	r5, r0
 8000d00:	b1e8      	cbz	r0, 8000d3e <HAL_PCD_Init+0xd2>
 8000d02:	2202      	movs	r2, #2
 8000d04:	f884 2495 	strb.w	r2, [r4, #1173]	; 0x495
 8000d08:	e7d6      	b.n	8000cb8 <HAL_PCD_Init+0x4c>
 8000d0a:	f823 0c0a 	strh.w	r0, [r3, #-10]
 8000d0e:	e943 2207 	strd	r2, r2, [r3, #-28]
 8000d12:	f803 7c23 	strb.w	r7, [r3, #-35]
 8000d16:	f803 1c24 	strb.w	r1, [r3, #-36]
 8000d1a:	f803 2c20 	strb.w	r2, [r3, #-32]
 8000d1e:	f843 2c14 	str.w	r2, [r3, #-20]
 8000d22:	3001      	adds	r0, #1
 8000d24:	e7d4      	b.n	8000cd0 <HAL_PCD_Init+0x64>
 8000d26:	e943 2207 	strd	r2, r2, [r3, #-28]
 8000d2a:	f803 2c23 	strb.w	r2, [r3, #-35]
 8000d2e:	f803 0c24 	strb.w	r0, [r3, #-36]
 8000d32:	f803 2c20 	strb.w	r2, [r3, #-32]
 8000d36:	f843 2c14 	str.w	r2, [r3, #-20]
 8000d3a:	3101      	adds	r1, #1
 8000d3c:	e7d1      	b.n	8000ce2 <HAL_PCD_Init+0x76>
 8000d3e:	7460      	strb	r0, [r4, #17]
 8000d40:	6820      	ldr	r0, [r4, #0]
 8000d42:	f884 3495 	strb.w	r3, [r4, #1173]	; 0x495
 8000d46:	f001 fc6d 	bl	8002624 <USB_DevDisconnect>
 8000d4a:	4628      	mov	r0, r5
 8000d4c:	b003      	add	sp, #12
 8000d4e:	bdf0      	pop	{r4, r5, r6, r7, pc}

08000d50 <HAL_PCD_Start>:
 8000d50:	b510      	push	{r4, lr}
 8000d52:	4604      	mov	r4, r0
 8000d54:	6800      	ldr	r0, [r0, #0]
 8000d56:	f894 3494 	ldrb.w	r3, [r4, #1172]	; 0x494
 8000d5a:	2b01      	cmp	r3, #1
 8000d5c:	d015      	beq.n	8000d8a <HAL_PCD_Start+0x3a>
 8000d5e:	2301      	movs	r3, #1
 8000d60:	f884 3494 	strb.w	r3, [r4, #1172]	; 0x494
 8000d64:	68c3      	ldr	r3, [r0, #12]
 8000d66:	065b      	lsls	r3, r3, #25
 8000d68:	d506      	bpl.n	8000d78 <HAL_PCD_Start+0x28>
 8000d6a:	7b63      	ldrb	r3, [r4, #13]
 8000d6c:	2b01      	cmp	r3, #1
 8000d6e:	bf02      	ittt	eq
 8000d70:	6b83      	ldreq	r3, [r0, #56]	; 0x38
 8000d72:	f443 3380 	orreq.w	r3, r3, #65536	; 0x10000
 8000d76:	6383      	streq	r3, [r0, #56]	; 0x38
 8000d78:	f001 f8a6 	bl	8001ec8 <USB_EnableGlobalInt>
 8000d7c:	6820      	ldr	r0, [r4, #0]
 8000d7e:	f001 fc43 	bl	8002608 <USB_DevConnect>
 8000d82:	2000      	movs	r0, #0
 8000d84:	f884 0494 	strb.w	r0, [r4, #1172]	; 0x494
 8000d88:	bd10      	pop	{r4, pc}
 8000d8a:	2002      	movs	r0, #2
 8000d8c:	e7fc      	b.n	8000d88 <HAL_PCD_Start+0x38>

08000d8e <HAL_PCD_SetAddress>:
 8000d8e:	b510      	push	{r4, lr}
 8000d90:	f890 2494 	ldrb.w	r2, [r0, #1172]	; 0x494
 8000d94:	2a01      	cmp	r2, #1
 8000d96:	4604      	mov	r4, r0
 8000d98:	d00a      	beq.n	8000db0 <HAL_PCD_SetAddress+0x22>
 8000d9a:	2201      	movs	r2, #1
 8000d9c:	f880 2494 	strb.w	r2, [r0, #1172]	; 0x494
 8000da0:	7441      	strb	r1, [r0, #17]
 8000da2:	6800      	ldr	r0, [r0, #0]
 8000da4:	f001 fc20 	bl	80025e8 <USB_SetDevAddress>
 8000da8:	2000      	movs	r0, #0
 8000daa:	f884 0494 	strb.w	r0, [r4, #1172]	; 0x494
 8000dae:	bd10      	pop	{r4, pc}
 8000db0:	2002      	movs	r0, #2
 8000db2:	e7fc      	b.n	8000dae <HAL_PCD_SetAddress+0x20>

08000db4 <HAL_PCD_EP_Open>:
 8000db4:	b570      	push	{r4, r5, r6, lr}
 8000db6:	f001 060f 	and.w	r6, r1, #15
 8000dba:	eb06 04c6 	add.w	r4, r6, r6, lsl #3
 8000dbe:	f011 0f80 	tst.w	r1, #128	; 0x80
 8000dc2:	4605      	mov	r5, r0
 8000dc4:	ea4f 0484 	mov.w	r4, r4, lsl #2
 8000dc8:	f04f 0024 	mov.w	r0, #36	; 0x24
 8000dcc:	d01e      	beq.n	8000e0c <HAL_PCD_EP_Open+0x58>
 8000dce:	fb00 5006 	mla	r0, r0, r6, r5
 8000dd2:	f104 0114 	add.w	r1, r4, #20
 8000dd6:	2401      	movs	r4, #1
 8000dd8:	4429      	add	r1, r5
 8000dda:	7544      	strb	r4, [r0, #21]
 8000ddc:	608a      	str	r2, [r1, #8]
 8000dde:	784a      	ldrb	r2, [r1, #1]
 8000de0:	700e      	strb	r6, [r1, #0]
 8000de2:	710b      	strb	r3, [r1, #4]
 8000de4:	b102      	cbz	r2, 8000de8 <HAL_PCD_EP_Open+0x34>
 8000de6:	834e      	strh	r6, [r1, #26]
 8000de8:	2b02      	cmp	r3, #2
 8000dea:	bf04      	itt	eq
 8000dec:	2300      	moveq	r3, #0
 8000dee:	714b      	strbeq	r3, [r1, #5]
 8000df0:	f895 3494 	ldrb.w	r3, [r5, #1172]	; 0x494
 8000df4:	2b01      	cmp	r3, #1
 8000df6:	d012      	beq.n	8000e1e <HAL_PCD_EP_Open+0x6a>
 8000df8:	2301      	movs	r3, #1
 8000dfa:	6828      	ldr	r0, [r5, #0]
 8000dfc:	f885 3494 	strb.w	r3, [r5, #1172]	; 0x494
 8000e00:	f001 f9af 	bl	8002162 <USB_ActivateEndpoint>
 8000e04:	2000      	movs	r0, #0
 8000e06:	f885 0494 	strb.w	r0, [r5, #1172]	; 0x494
 8000e0a:	bd70      	pop	{r4, r5, r6, pc}
 8000e0c:	fb00 5006 	mla	r0, r0, r6, r5
 8000e10:	f504 7115 	add.w	r1, r4, #596	; 0x254
 8000e14:	2400      	movs	r4, #0
 8000e16:	4429      	add	r1, r5
 8000e18:	f880 4255 	strb.w	r4, [r0, #597]	; 0x255
 8000e1c:	e7de      	b.n	8000ddc <HAL_PCD_EP_Open+0x28>
 8000e1e:	2002      	movs	r0, #2
 8000e20:	e7f3      	b.n	8000e0a <HAL_PCD_EP_Open+0x56>

08000e22 <HAL_PCD_EP_Close>:
 8000e22:	b510      	push	{r4, lr}
 8000e24:	4604      	mov	r4, r0
 8000e26:	f001 000f 	and.w	r0, r1, #15
 8000e2a:	eb00 03c0 	add.w	r3, r0, r0, lsl #3
 8000e2e:	f011 0f80 	tst.w	r1, #128	; 0x80
 8000e32:	ea4f 0383 	mov.w	r3, r3, lsl #2
 8000e36:	f04f 0224 	mov.w	r2, #36	; 0x24
 8000e3a:	d015      	beq.n	8000e68 <HAL_PCD_EP_Close+0x46>
 8000e3c:	fb02 4200 	mla	r2, r2, r0, r4
 8000e40:	f103 0114 	add.w	r1, r3, #20
 8000e44:	2301      	movs	r3, #1
 8000e46:	4421      	add	r1, r4
 8000e48:	7553      	strb	r3, [r2, #21]
 8000e4a:	7008      	strb	r0, [r1, #0]
 8000e4c:	f894 3494 	ldrb.w	r3, [r4, #1172]	; 0x494
 8000e50:	2b01      	cmp	r3, #1
 8000e52:	d012      	beq.n	8000e7a <HAL_PCD_EP_Close+0x58>
 8000e54:	2301      	movs	r3, #1
 8000e56:	6820      	ldr	r0, [r4, #0]
 8000e58:	f884 3494 	strb.w	r3, [r4, #1172]	; 0x494
 8000e5c:	f001 f9c0 	bl	80021e0 <USB_DeactivateEndpoint>
 8000e60:	2000      	movs	r0, #0
 8000e62:	f884 0494 	strb.w	r0, [r4, #1172]	; 0x494
 8000e66:	bd10      	pop	{r4, pc}
 8000e68:	fb02 4200 	mla	r2, r2, r0, r4
 8000e6c:	f503 7115 	add.w	r1, r3, #596	; 0x254
 8000e70:	2300      	movs	r3, #0
 8000e72:	4421      	add	r1, r4
 8000e74:	f882 3255 	strb.w	r3, [r2, #597]	; 0x255
 8000e78:	e7e7      	b.n	8000e4a <HAL_PCD_EP_Close+0x28>
 8000e7a:	2002      	movs	r0, #2
 8000e7c:	e7f3      	b.n	8000e66 <HAL_PCD_EP_Close+0x44>

08000e7e <HAL_PCD_EP_Receive>:
 8000e7e:	b538      	push	{r3, r4, r5, lr}
 8000e80:	f001 050f 	and.w	r5, r1, #15
 8000e84:	2424      	movs	r4, #36	; 0x24
 8000e86:	fb04 0105 	mla	r1, r4, r5, r0
 8000e8a:	fb04 0405 	mla	r4, r4, r5, r0
 8000e8e:	e9c4 2398 	strd	r2, r3, [r4, #608]	; 0x260
 8000e92:	2300      	movs	r3, #0
 8000e94:	f8c4 3268 	str.w	r3, [r4, #616]	; 0x268
 8000e98:	f884 3255 	strb.w	r3, [r4, #597]	; 0x255
 8000e9c:	f884 5254 	strb.w	r5, [r4, #596]	; 0x254
 8000ea0:	7983      	ldrb	r3, [r0, #6]
 8000ea2:	6800      	ldr	r0, [r0, #0]
 8000ea4:	2b01      	cmp	r3, #1
 8000ea6:	bf08      	it	eq
 8000ea8:	f8c4 2270 	streq.w	r2, [r4, #624]	; 0x270
 8000eac:	f501 7115 	add.w	r1, r1, #596	; 0x254
 8000eb0:	461a      	mov	r2, r3
 8000eb2:	f001 fa41 	bl	8002338 <USB_EPStartXfer>
 8000eb6:	2000      	movs	r0, #0
 8000eb8:	bd38      	pop	{r3, r4, r5, pc}

08000eba <HAL_PCD_EP_Transmit>:
 8000eba:	b538      	push	{r3, r4, r5, lr}
 8000ebc:	f001 050f 	and.w	r5, r1, #15
 8000ec0:	2424      	movs	r4, #36	; 0x24
 8000ec2:	fb04 0105 	mla	r1, r4, r5, r0
 8000ec6:	fb04 0405 	mla	r4, r4, r5, r0
 8000eca:	e9c4 2308 	strd	r2, r3, [r4, #32]
 8000ece:	2300      	movs	r3, #0
 8000ed0:	62a3      	str	r3, [r4, #40]	; 0x28
 8000ed2:	2301      	movs	r3, #1
 8000ed4:	7563      	strb	r3, [r4, #21]
 8000ed6:	7525      	strb	r5, [r4, #20]
 8000ed8:	7983      	ldrb	r3, [r0, #6]
 8000eda:	6800      	ldr	r0, [r0, #0]
 8000edc:	2b01      	cmp	r3, #1
 8000ede:	bf08      	it	eq
 8000ee0:	6322      	streq	r2, [r4, #48]	; 0x30
 8000ee2:	3114      	adds	r1, #20
 8000ee4:	461a      	mov	r2, r3
 8000ee6:	f001 fa27 	bl	8002338 <USB_EPStartXfer>
 8000eea:	2000      	movs	r0, #0
 8000eec:	bd38      	pop	{r3, r4, r5, pc}

08000eee <HAL_PCD_EP_SetStall>:
 8000eee:	b538      	push	{r3, r4, r5, lr}
 8000ef0:	7903      	ldrb	r3, [r0, #4]
 8000ef2:	f001 050f 	and.w	r5, r1, #15
 8000ef6:	42ab      	cmp	r3, r5
 8000ef8:	4604      	mov	r4, r0
 8000efa:	d32d      	bcc.n	8000f58 <HAL_PCD_EP_SetStall+0x6a>
 8000efc:	f011 0f80 	tst.w	r1, #128	; 0x80
 8000f00:	f04f 0224 	mov.w	r2, #36	; 0x24
 8000f04:	d01e      	beq.n	8000f44 <HAL_PCD_EP_SetStall+0x56>
 8000f06:	fb02 0305 	mla	r3, r2, r5, r0
 8000f0a:	fb02 0205 	mla	r2, r2, r5, r0
 8000f0e:	2101      	movs	r1, #1
 8000f10:	3314      	adds	r3, #20
 8000f12:	7551      	strb	r1, [r2, #21]
 8000f14:	2201      	movs	r2, #1
 8000f16:	709a      	strb	r2, [r3, #2]
 8000f18:	701d      	strb	r5, [r3, #0]
 8000f1a:	f894 1494 	ldrb.w	r1, [r4, #1172]	; 0x494
 8000f1e:	4291      	cmp	r1, r2
 8000f20:	d01c      	beq.n	8000f5c <HAL_PCD_EP_SetStall+0x6e>
 8000f22:	6820      	ldr	r0, [r4, #0]
 8000f24:	f884 2494 	strb.w	r2, [r4, #1172]	; 0x494
 8000f28:	4619      	mov	r1, r3
 8000f2a:	f001 fb09 	bl	8002540 <USB_EPSetStall>
 8000f2e:	b92d      	cbnz	r5, 8000f3c <HAL_PCD_EP_SetStall+0x4e>
 8000f30:	79a1      	ldrb	r1, [r4, #6]
 8000f32:	6820      	ldr	r0, [r4, #0]
 8000f34:	f204 429c 	addw	r2, r4, #1180	; 0x49c
 8000f38:	f001 fbc4 	bl	80026c4 <USB_EP0_OutStart>
 8000f3c:	2000      	movs	r0, #0
 8000f3e:	f884 0494 	strb.w	r0, [r4, #1172]	; 0x494
 8000f42:	bd38      	pop	{r3, r4, r5, pc}
 8000f44:	fb02 0301 	mla	r3, r2, r1, r0
 8000f48:	fb02 0101 	mla	r1, r2, r1, r0
 8000f4c:	2200      	movs	r2, #0
 8000f4e:	f503 7315 	add.w	r3, r3, #596	; 0x254
 8000f52:	f881 2255 	strb.w	r2, [r1, #597]	; 0x255
 8000f56:	e7dd      	b.n	8000f14 <HAL_PCD_EP_SetStall+0x26>
 8000f58:	2001      	movs	r0, #1
 8000f5a:	e7f2      	b.n	8000f42 <HAL_PCD_EP_SetStall+0x54>
 8000f5c:	2002      	movs	r0, #2
 8000f5e:	e7f0      	b.n	8000f42 <HAL_PCD_EP_SetStall+0x54>

08000f60 <HAL_PCD_EP_ClrStall>:
 8000f60:	b538      	push	{r3, r4, r5, lr}
 8000f62:	7903      	ldrb	r3, [r0, #4]
 8000f64:	f001 020f 	and.w	r2, r1, #15
 8000f68:	4293      	cmp	r3, r2
 8000f6a:	4604      	mov	r4, r0
 8000f6c:	d329      	bcc.n	8000fc2 <HAL_PCD_EP_ClrStall+0x62>
 8000f6e:	eb02 03c2 	add.w	r3, r2, r2, lsl #3
 8000f72:	f011 0f80 	tst.w	r1, #128	; 0x80
 8000f76:	ea4f 0383 	mov.w	r3, r3, lsl #2
 8000f7a:	f04f 0024 	mov.w	r0, #36	; 0x24
 8000f7e:	d017      	beq.n	8000fb0 <HAL_PCD_EP_ClrStall+0x50>
 8000f80:	fb00 4002 	mla	r0, r0, r2, r4
 8000f84:	f103 0114 	add.w	r1, r3, #20
 8000f88:	2301      	movs	r3, #1
 8000f8a:	4421      	add	r1, r4
 8000f8c:	7543      	strb	r3, [r0, #21]
 8000f8e:	2500      	movs	r5, #0
 8000f90:	708d      	strb	r5, [r1, #2]
 8000f92:	700a      	strb	r2, [r1, #0]
 8000f94:	f894 3494 	ldrb.w	r3, [r4, #1172]	; 0x494
 8000f98:	2b01      	cmp	r3, #1
 8000f9a:	d014      	beq.n	8000fc6 <HAL_PCD_EP_ClrStall+0x66>
 8000f9c:	2301      	movs	r3, #1
 8000f9e:	6820      	ldr	r0, [r4, #0]
 8000fa0:	f884 3494 	strb.w	r3, [r4, #1172]	; 0x494
 8000fa4:	f001 faf7 	bl	8002596 <USB_EPClearStall>
 8000fa8:	f884 5494 	strb.w	r5, [r4, #1172]	; 0x494
 8000fac:	4628      	mov	r0, r5
 8000fae:	bd38      	pop	{r3, r4, r5, pc}
 8000fb0:	fb00 4002 	mla	r0, r0, r2, r4
 8000fb4:	f503 7115 	add.w	r1, r3, #596	; 0x254
 8000fb8:	2300      	movs	r3, #0
 8000fba:	4421      	add	r1, r4
 8000fbc:	f880 3255 	strb.w	r3, [r0, #597]	; 0x255
 8000fc0:	e7e5      	b.n	8000f8e <HAL_PCD_EP_ClrStall+0x2e>
 8000fc2:	2001      	movs	r0, #1
 8000fc4:	e7f3      	b.n	8000fae <HAL_PCD_EP_ClrStall+0x4e>
 8000fc6:	2002      	movs	r0, #2
 8000fc8:	e7f1      	b.n	8000fae <HAL_PCD_EP_ClrStall+0x4e>

08000fca <HAL_PCD_EP_Abort>:
 8000fca:	f001 030f 	and.w	r3, r1, #15
 8000fce:	eb03 03c3 	add.w	r3, r3, r3, lsl #3
 8000fd2:	060a      	lsls	r2, r1, #24
 8000fd4:	ea4f 0383 	mov.w	r3, r3, lsl #2
 8000fd8:	bf4c      	ite	mi
 8000fda:	f103 0114 	addmi.w	r1, r3, #20
 8000fde:	f503 7115 	addpl.w	r1, r3, #596	; 0x254
 8000fe2:	4401      	add	r1, r0
 8000fe4:	6800      	ldr	r0, [r0, #0]
 8000fe6:	f001 b951 	b.w	800228c <USB_EPStopXfer>
	...

08000fec <HAL_PCD_IRQHandler>:
 8000fec:	e92d 4ff0 	stmdb	sp!, {r4, r5, r6, r7, r8, r9, sl, fp, lr}
 8000ff0:	6806      	ldr	r6, [r0, #0]
 8000ff2:	b089      	sub	sp, #36	; 0x24
 8000ff4:	4604      	mov	r4, r0
 8000ff6:	4630      	mov	r0, r6
 8000ff8:	f001 fb50 	bl	800269c <USB_GetMode>
 8000ffc:	9003      	str	r0, [sp, #12]
 8000ffe:	2800      	cmp	r0, #0
 8001000:	f040 8157 	bne.w	80012b2 <HAL_PCD_IRQHandler+0x2c6>
 8001004:	6820      	ldr	r0, [r4, #0]
 8001006:	f001 fb1b 	bl	8002640 <USB_ReadInterrupts>
 800100a:	2800      	cmp	r0, #0
 800100c:	f000 8151 	beq.w	80012b2 <HAL_PCD_IRQHandler+0x2c6>
 8001010:	f8d6 3808 	ldr.w	r3, [r6, #2056]	; 0x808
 8001014:	6820      	ldr	r0, [r4, #0]
 8001016:	f3c3 230d 	ubfx	r3, r3, #8, #14
 800101a:	f8c4 34d4 	str.w	r3, [r4, #1236]	; 0x4d4
 800101e:	f001 fb0f 	bl	8002640 <USB_ReadInterrupts>
 8001022:	0787      	lsls	r7, r0, #30
 8001024:	bf48      	it	mi
 8001026:	6822      	ldrmi	r2, [r4, #0]
 8001028:	6820      	ldr	r0, [r4, #0]
 800102a:	bf42      	ittt	mi
 800102c:	6953      	ldrmi	r3, [r2, #20]
 800102e:	f003 0302 	andmi.w	r3, r3, #2
 8001032:	6153      	strmi	r3, [r2, #20]
 8001034:	f001 fb04 	bl	8002640 <USB_ReadInterrupts>
 8001038:	06c0      	lsls	r0, r0, #27
 800103a:	f506 6500 	add.w	r5, r6, #2048	; 0x800
 800103e:	d52c      	bpl.n	800109a <HAL_PCD_IRQHandler+0xae>
 8001040:	6822      	ldr	r2, [r4, #0]
 8001042:	6993      	ldr	r3, [r2, #24]
 8001044:	f023 0310 	bic.w	r3, r3, #16
 8001048:	6193      	str	r3, [r2, #24]
 800104a:	f8d6 8020 	ldr.w	r8, [r6, #32]
 800104e:	f3c8 4343 	ubfx	r3, r8, #17, #4
 8001052:	2b02      	cmp	r3, #2
 8001054:	f008 070f 	and.w	r7, r8, #15
 8001058:	f040 812e 	bne.w	80012b8 <HAL_PCD_IRQHandler+0x2cc>
 800105c:	f647 73f0 	movw	r3, #32752	; 0x7ff0
 8001060:	ea18 0f03 	tst.w	r8, r3
 8001064:	d014      	beq.n	8001090 <HAL_PCD_IRQHandler+0xa4>
 8001066:	2324      	movs	r3, #36	; 0x24
 8001068:	fb03 4707 	mla	r7, r3, r7, r4
 800106c:	f3c8 190a 	ubfx	r9, r8, #4, #11
 8001070:	f8d7 1260 	ldr.w	r1, [r7, #608]	; 0x260
 8001074:	464a      	mov	r2, r9
 8001076:	4630      	mov	r0, r6
 8001078:	f001 fa42 	bl	8002500 <USB_ReadPacket>
 800107c:	f8d7 3260 	ldr.w	r3, [r7, #608]	; 0x260
 8001080:	444b      	add	r3, r9
 8001082:	f8c7 3260 	str.w	r3, [r7, #608]	; 0x260
 8001086:	f8d7 3268 	ldr.w	r3, [r7, #616]	; 0x268
 800108a:	444b      	add	r3, r9
 800108c:	f8c7 3268 	str.w	r3, [r7, #616]	; 0x268
 8001090:	6822      	ldr	r2, [r4, #0]
 8001092:	6993      	ldr	r3, [r2, #24]
 8001094:	f043 0310 	orr.w	r3, r3, #16
 8001098:	6193      	str	r3, [r2, #24]
 800109a:	6820      	ldr	r0, [r4, #0]
 800109c:	f001 fad0 	bl	8002640 <USB_ReadInterrupts>
 80010a0:	0301      	lsls	r1, r0, #12
 80010a2:	f100 811b 	bmi.w	80012dc <HAL_PCD_IRQHandler+0x2f0>
 80010a6:	6820      	ldr	r0, [r4, #0]
 80010a8:	f001 faca 	bl	8002640 <USB_ReadInterrupts>
 80010ac:	0342      	lsls	r2, r0, #13
 80010ae:	d50d      	bpl.n	80010cc <HAL_PCD_IRQHandler+0xe0>
 80010b0:	6820      	ldr	r0, [r4, #0]
 80010b2:	f001 fad1 	bl	8002658 <USB_ReadDevAllInEpInterrupt>
 80010b6:	4627      	mov	r7, r4
 80010b8:	9004      	str	r0, [sp, #16]
 80010ba:	f506 6a10 	add.w	sl, r6, #2304	; 0x900
 80010be:	f04f 0900 	mov.w	r9, #0
 80010c2:	9b04      	ldr	r3, [sp, #16]
 80010c4:	6820      	ldr	r0, [r4, #0]
 80010c6:	2b00      	cmp	r3, #0
 80010c8:	f040 81d4 	bne.w	8001474 <HAL_PCD_IRQHandler+0x488>
 80010cc:	6820      	ldr	r0, [r4, #0]
 80010ce:	f001 fab7 	bl	8002640 <USB_ReadInterrupts>
 80010d2:	2800      	cmp	r0, #0
 80010d4:	da13      	bge.n	80010fe <HAL_PCD_IRQHandler+0x112>
 80010d6:	686b      	ldr	r3, [r5, #4]
 80010d8:	f023 0301 	bic.w	r3, r3, #1
 80010dc:	606b      	str	r3, [r5, #4]
 80010de:	f894 34cc 	ldrb.w	r3, [r4, #1228]	; 0x4cc
 80010e2:	2b01      	cmp	r3, #1
 80010e4:	f040 826d 	bne.w	80015c2 <HAL_PCD_IRQHandler+0x5d6>
 80010e8:	2100      	movs	r1, #0
 80010ea:	f884 14cc 	strb.w	r1, [r4, #1228]	; 0x4cc
 80010ee:	4620      	mov	r0, r4
 80010f0:	f000 faea 	bl	80016c8 <HAL_PCDEx_LPM_Callback>
 80010f4:	6822      	ldr	r2, [r4, #0]
 80010f6:	6953      	ldr	r3, [r2, #20]
 80010f8:	f003 4300 	and.w	r3, r3, #2147483648	; 0x80000000
 80010fc:	6153      	str	r3, [r2, #20]
 80010fe:	6820      	ldr	r0, [r4, #0]
 8001100:	f001 fa9e 	bl	8002640 <USB_ReadInterrupts>
 8001104:	0501      	lsls	r1, r0, #20
 8001106:	d50a      	bpl.n	800111e <HAL_PCD_IRQHandler+0x132>
 8001108:	68ab      	ldr	r3, [r5, #8]
 800110a:	07da      	lsls	r2, r3, #31
 800110c:	d502      	bpl.n	8001114 <HAL_PCD_IRQHandler+0x128>
 800110e:	4620      	mov	r0, r4
 8001110:	f002 f9d6 	bl	80034c0 <HAL_PCD_SuspendCallback>
 8001114:	6822      	ldr	r2, [r4, #0]
 8001116:	6953      	ldr	r3, [r2, #20]
 8001118:	f403 6300 	and.w	r3, r3, #2048	; 0x800
 800111c:	6153      	str	r3, [r2, #20]
 800111e:	6820      	ldr	r0, [r4, #0]
 8001120:	f001 fa8e 	bl	8002640 <USB_ReadInterrupts>
 8001124:	04c3      	lsls	r3, r0, #19
 8001126:	d533      	bpl.n	8001190 <HAL_PCD_IRQHandler+0x1a4>
 8001128:	686b      	ldr	r3, [r5, #4]
 800112a:	6820      	ldr	r0, [r4, #0]
 800112c:	f023 0301 	bic.w	r3, r3, #1
 8001130:	606b      	str	r3, [r5, #4]
 8001132:	2110      	movs	r1, #16
 8001134:	f000 ff04 	bl	8001f40 <USB_FlushTxFifo>
 8001138:	7920      	ldrb	r0, [r4, #4]
 800113a:	f506 6310 	add.w	r3, r6, #2304	; 0x900
 800113e:	f64f 317f 	movw	r1, #64383	; 0xfb7f
 8001142:	9a03      	ldr	r2, [sp, #12]
 8001144:	4290      	cmp	r0, r2
 8001146:	f200 8240 	bhi.w	80015ca <HAL_PCD_IRQHandler+0x5de>
 800114a:	69eb      	ldr	r3, [r5, #28]
 800114c:	f043 1301 	orr.w	r3, r3, #65537	; 0x10001
 8001150:	61eb      	str	r3, [r5, #28]
 8001152:	7be3      	ldrb	r3, [r4, #15]
 8001154:	2b00      	cmp	r3, #0
 8001156:	f000 8255 	beq.w	8001604 <HAL_PCD_IRQHandler+0x618>
 800115a:	f8d5 3084 	ldr.w	r3, [r5, #132]	; 0x84
 800115e:	f043 030b 	orr.w	r3, r3, #11
 8001162:	f8c5 3084 	str.w	r3, [r5, #132]	; 0x84
 8001166:	6c6b      	ldr	r3, [r5, #68]	; 0x44
 8001168:	f043 030b 	orr.w	r3, r3, #11
 800116c:	646b      	str	r3, [r5, #68]	; 0x44
 800116e:	f8d6 3800 	ldr.w	r3, [r6, #2048]	; 0x800
 8001172:	6820      	ldr	r0, [r4, #0]
 8001174:	f423 63fe 	bic.w	r3, r3, #2032	; 0x7f0
 8001178:	f8c6 3800 	str.w	r3, [r6, #2048]	; 0x800
 800117c:	f204 429c 	addw	r2, r4, #1180	; 0x49c
 8001180:	79a1      	ldrb	r1, [r4, #6]
 8001182:	f001 fa9f 	bl	80026c4 <USB_EP0_OutStart>
 8001186:	6822      	ldr	r2, [r4, #0]
 8001188:	6953      	ldr	r3, [r2, #20]
 800118a:	f403 5380 	and.w	r3, r3, #4096	; 0x1000
 800118e:	6153      	str	r3, [r2, #20]
 8001190:	6820      	ldr	r0, [r4, #0]
 8001192:	f001 fa55 	bl	8002640 <USB_ReadInterrupts>
 8001196:	0487      	lsls	r7, r0, #18
 8001198:	d516      	bpl.n	80011c8 <HAL_PCD_IRQHandler+0x1dc>
 800119a:	6820      	ldr	r0, [r4, #0]
 800119c:	f001 fa82 	bl	80026a4 <USB_ActivateSetup>
 80011a0:	6820      	ldr	r0, [r4, #0]
 80011a2:	f000 ffd3 	bl	800214c <USB_GetDevSpeed>
 80011a6:	71e0      	strb	r0, [r4, #7]
 80011a8:	6827      	ldr	r7, [r4, #0]
 80011aa:	f000 fd03 	bl	8001bb4 <HAL_RCC_GetHCLKFreq>
 80011ae:	79e2      	ldrb	r2, [r4, #7]
 80011b0:	4601      	mov	r1, r0
 80011b2:	4638      	mov	r0, r7
 80011b4:	f000 fe18 	bl	8001de8 <USB_SetTurnaroundTime>
 80011b8:	4620      	mov	r0, r4
 80011ba:	f002 f96d 	bl	8003498 <HAL_PCD_ResetCallback>
 80011be:	6822      	ldr	r2, [r4, #0]
 80011c0:	6953      	ldr	r3, [r2, #20]
 80011c2:	f403 5300 	and.w	r3, r3, #8192	; 0x2000
 80011c6:	6153      	str	r3, [r2, #20]
 80011c8:	6820      	ldr	r0, [r4, #0]
 80011ca:	f001 fa39 	bl	8002640 <USB_ReadInterrupts>
 80011ce:	0700      	lsls	r0, r0, #28
 80011d0:	d507      	bpl.n	80011e2 <HAL_PCD_IRQHandler+0x1f6>
 80011d2:	4620      	mov	r0, r4
 80011d4:	f002 f95c 	bl	8003490 <HAL_PCD_SOFCallback>
 80011d8:	6822      	ldr	r2, [r4, #0]
 80011da:	6953      	ldr	r3, [r2, #20]
 80011dc:	f003 0308 	and.w	r3, r3, #8
 80011e0:	6153      	str	r3, [r2, #20]
 80011e2:	6820      	ldr	r0, [r4, #0]
 80011e4:	f001 fa2c 	bl	8002640 <USB_ReadInterrupts>
 80011e8:	0601      	lsls	r1, r0, #24
 80011ea:	f100 8216 	bmi.w	800161a <HAL_PCD_IRQHandler+0x62e>
 80011ee:	6820      	ldr	r0, [r4, #0]
 80011f0:	f001 fa26 	bl	8002640 <USB_ReadInterrupts>
 80011f4:	02c2      	lsls	r2, r0, #11
 80011f6:	d50c      	bpl.n	8001212 <HAL_PCD_IRQHandler+0x226>
 80011f8:	46a0      	mov	r8, r4
 80011fa:	f506 6912 	add.w	r9, r6, #2336	; 0x920
 80011fe:	2701      	movs	r7, #1
 8001200:	7923      	ldrb	r3, [r4, #4]
 8001202:	42bb      	cmp	r3, r7
 8001204:	f200 8222 	bhi.w	800164c <HAL_PCD_IRQHandler+0x660>
 8001208:	6822      	ldr	r2, [r4, #0]
 800120a:	6953      	ldr	r3, [r2, #20]
 800120c:	f403 1380 	and.w	r3, r3, #1048576	; 0x100000
 8001210:	6153      	str	r3, [r2, #20]
 8001212:	6820      	ldr	r0, [r4, #0]
 8001214:	f001 fa14 	bl	8002640 <USB_ReadInterrupts>
 8001218:	0283      	lsls	r3, r0, #10
 800121a:	d52d      	bpl.n	8001278 <HAL_PCD_IRQHandler+0x28c>
 800121c:	f894 e004 	ldrb.w	lr, [r4, #4]
 8001220:	4623      	mov	r3, r4
 8001222:	f506 6032 	add.w	r0, r6, #2848	; 0xb20
 8001226:	2101      	movs	r1, #1
 8001228:	458e      	cmp	lr, r1
 800122a:	d920      	bls.n	800126e <HAL_PCD_IRQHandler+0x282>
 800122c:	f893 c27c 	ldrb.w	ip, [r3, #636]	; 0x27c
 8001230:	6802      	ldr	r2, [r0, #0]
 8001232:	f1bc 0f01 	cmp.w	ip, #1
 8001236:	f040 821f 	bne.w	8001678 <HAL_PCD_IRQHandler+0x68c>
 800123a:	2a00      	cmp	r2, #0
 800123c:	f280 821c 	bge.w	8001678 <HAL_PCD_IRQHandler+0x68c>
 8001240:	f8d4 74d4 	ldr.w	r7, [r4, #1236]	; 0x4d4
 8001244:	f402 3280 	and.w	r2, r2, #65536	; 0x10000
 8001248:	f007 0701 	and.w	r7, r7, #1
 800124c:	42ba      	cmp	r2, r7
 800124e:	f040 8213 	bne.w	8001678 <HAL_PCD_IRQHandler+0x68c>
 8001252:	f883 c27b 	strb.w	ip, [r3, #635]	; 0x27b
 8001256:	69b2      	ldr	r2, [r6, #24]
 8001258:	f042 0280 	orr.w	r2, r2, #128	; 0x80
 800125c:	61b2      	str	r2, [r6, #24]
 800125e:	6972      	ldr	r2, [r6, #20]
 8001260:	0617      	lsls	r7, r2, #24
 8001262:	f100 8209 	bmi.w	8001678 <HAL_PCD_IRQHandler+0x68c>
 8001266:	686b      	ldr	r3, [r5, #4]
 8001268:	f443 7300 	orr.w	r3, r3, #512	; 0x200
 800126c:	606b      	str	r3, [r5, #4]
 800126e:	6822      	ldr	r2, [r4, #0]
 8001270:	6953      	ldr	r3, [r2, #20]
 8001272:	f403 1300 	and.w	r3, r3, #2097152	; 0x200000
 8001276:	6153      	str	r3, [r2, #20]
 8001278:	6820      	ldr	r0, [r4, #0]
 800127a:	f001 f9e1 	bl	8002640 <USB_ReadInterrupts>
 800127e:	0041      	lsls	r1, r0, #1
 8001280:	d507      	bpl.n	8001292 <HAL_PCD_IRQHandler+0x2a6>
 8001282:	4620      	mov	r0, r4
 8001284:	f002 f940 	bl	8003508 <HAL_PCD_ConnectCallback>
 8001288:	6822      	ldr	r2, [r4, #0]
 800128a:	6953      	ldr	r3, [r2, #20]
 800128c:	f003 4380 	and.w	r3, r3, #1073741824	; 0x40000000
 8001290:	6153      	str	r3, [r2, #20]
 8001292:	6820      	ldr	r0, [r4, #0]
 8001294:	f001 f9d4 	bl	8002640 <USB_ReadInterrupts>
 8001298:	0742      	lsls	r2, r0, #29
 800129a:	d50a      	bpl.n	80012b2 <HAL_PCD_IRQHandler+0x2c6>
 800129c:	6823      	ldr	r3, [r4, #0]
 800129e:	685d      	ldr	r5, [r3, #4]
 80012a0:	076b      	lsls	r3, r5, #29
 80012a2:	d502      	bpl.n	80012aa <HAL_PCD_IRQHandler+0x2be>
 80012a4:	4620      	mov	r0, r4
 80012a6:	f002 f933 	bl	8003510 <HAL_PCD_DisconnectCallback>
 80012aa:	6822      	ldr	r2, [r4, #0]
 80012ac:	6853      	ldr	r3, [r2, #4]
 80012ae:	432b      	orrs	r3, r5
 80012b0:	6053      	str	r3, [r2, #4]
 80012b2:	b009      	add	sp, #36	; 0x24
 80012b4:	e8bd 8ff0 	ldmia.w	sp!, {r4, r5, r6, r7, r8, r9, sl, fp, pc}
 80012b8:	2b06      	cmp	r3, #6
 80012ba:	f47f aee9 	bne.w	8001090 <HAL_PCD_IRQHandler+0xa4>
 80012be:	2208      	movs	r2, #8
 80012c0:	f204 419c 	addw	r1, r4, #1180	; 0x49c
 80012c4:	4630      	mov	r0, r6
 80012c6:	f001 f91b 	bl	8002500 <USB_ReadPacket>
 80012ca:	2324      	movs	r3, #36	; 0x24
 80012cc:	fb03 4707 	mla	r7, r3, r7, r4
 80012d0:	f3c8 180a 	ubfx	r8, r8, #4, #11
 80012d4:	f8d7 3268 	ldr.w	r3, [r7, #616]	; 0x268
 80012d8:	4443      	add	r3, r8
 80012da:	e6d7      	b.n	800108c <HAL_PCD_IRQHandler+0xa0>
 80012dc:	6820      	ldr	r0, [r4, #0]
 80012de:	f001 f9b3 	bl	8002648 <USB_ReadDevAllOutEpInterrupt>
 80012e2:	f506 6830 	add.w	r8, r6, #2816	; 0xb00
 80012e6:	9004      	str	r0, [sp, #16]
 80012e8:	46a2      	mov	sl, r4
 80012ea:	2700      	movs	r7, #0
 80012ec:	9b04      	ldr	r3, [sp, #16]
 80012ee:	6820      	ldr	r0, [r4, #0]
 80012f0:	2b00      	cmp	r3, #0
 80012f2:	f43f aed8 	beq.w	80010a6 <HAL_PCD_IRQHandler+0xba>
 80012f6:	9b04      	ldr	r3, [sp, #16]
 80012f8:	07db      	lsls	r3, r3, #31
 80012fa:	d578      	bpl.n	80013ee <HAL_PCD_IRQHandler+0x402>
 80012fc:	fa5f fb87 	uxtb.w	fp, r7
 8001300:	4659      	mov	r1, fp
 8001302:	f001 f9b1 	bl	8002668 <USB_ReadDevOutEPInterrupt>
 8001306:	f010 0f01 	tst.w	r0, #1
 800130a:	4681      	mov	r9, r0
 800130c:	d01f      	beq.n	800134e <HAL_PCD_IRQHandler+0x362>
 800130e:	f8d4 e000 	ldr.w	lr, [r4]
 8001312:	2301      	movs	r3, #1
 8001314:	f8c8 3008 	str.w	r3, [r8, #8]
 8001318:	f894 c006 	ldrb.w	ip, [r4, #6]
 800131c:	f8de 1040 	ldr.w	r1, [lr, #64]	; 0x40
 8001320:	f50e 6330 	add.w	r3, lr, #2816	; 0xb00
 8001324:	eb03 1347 	add.w	r3, r3, r7, lsl #5
 8001328:	f1bc 0f01 	cmp.w	ip, #1
 800132c:	689a      	ldr	r2, [r3, #8]
 800132e:	f040 808c 	bne.w	800144a <HAL_PCD_IRQHandler+0x45e>
 8001332:	0710      	lsls	r0, r2, #28
 8001334:	d507      	bpl.n	8001346 <HAL_PCD_IRQHandler+0x35a>
 8001336:	48b1      	ldr	r0, [pc, #708]	; (80015fc <HAL_PCD_IRQHandler+0x610>)
 8001338:	4281      	cmp	r1, r0
 800133a:	d908      	bls.n	800134e <HAL_PCD_IRQHandler+0x362>
 800133c:	0412      	lsls	r2, r2, #16
 800133e:	d506      	bpl.n	800134e <HAL_PCD_IRQHandler+0x362>
 8001340:	f44f 4200 	mov.w	r2, #32768	; 0x8000
 8001344:	e002      	b.n	800134c <HAL_PCD_IRQHandler+0x360>
 8001346:	0690      	lsls	r0, r2, #26
 8001348:	d55a      	bpl.n	8001400 <HAL_PCD_IRQHandler+0x414>
 800134a:	2220      	movs	r2, #32
 800134c:	609a      	str	r2, [r3, #8]
 800134e:	f019 0f08 	tst.w	r9, #8
 8001352:	d021      	beq.n	8001398 <HAL_PCD_IRQHandler+0x3ac>
 8001354:	2308      	movs	r3, #8
 8001356:	f8c8 3008 	str.w	r3, [r8, #8]
 800135a:	6823      	ldr	r3, [r4, #0]
 800135c:	48a7      	ldr	r0, [pc, #668]	; (80015fc <HAL_PCD_IRQHandler+0x610>)
 800135e:	6c1a      	ldr	r2, [r3, #64]	; 0x40
 8001360:	f503 6330 	add.w	r3, r3, #2816	; 0xb00
 8001364:	eb03 1347 	add.w	r3, r3, r7, lsl #5
 8001368:	4282      	cmp	r2, r0
 800136a:	6899      	ldr	r1, [r3, #8]
 800136c:	d904      	bls.n	8001378 <HAL_PCD_IRQHandler+0x38c>
 800136e:	0409      	lsls	r1, r1, #16
 8001370:	bf44      	itt	mi
 8001372:	f44f 4100 	movmi.w	r1, #32768	; 0x8000
 8001376:	6099      	strmi	r1, [r3, #8]
 8001378:	4620      	mov	r0, r4
 800137a:	9205      	str	r2, [sp, #20]
 800137c:	f002 f864 	bl	8003448 <HAL_PCD_SetupStageCallback>
 8001380:	4b9e      	ldr	r3, [pc, #632]	; (80015fc <HAL_PCD_IRQHandler+0x610>)
 8001382:	9a05      	ldr	r2, [sp, #20]
 8001384:	429a      	cmp	r2, r3
 8001386:	d907      	bls.n	8001398 <HAL_PCD_IRQHandler+0x3ac>
 8001388:	79a1      	ldrb	r1, [r4, #6]
 800138a:	2901      	cmp	r1, #1
 800138c:	d104      	bne.n	8001398 <HAL_PCD_IRQHandler+0x3ac>
 800138e:	6820      	ldr	r0, [r4, #0]
 8001390:	f204 429c 	addw	r2, r4, #1180	; 0x49c
 8001394:	f001 f996 	bl	80026c4 <USB_EP0_OutStart>
 8001398:	f019 0f10 	tst.w	r9, #16
 800139c:	bf1c      	itt	ne
 800139e:	2310      	movne	r3, #16
 80013a0:	f8c8 3008 	strne.w	r3, [r8, #8]
 80013a4:	f019 0f02 	tst.w	r9, #2
 80013a8:	d014      	beq.n	80013d4 <HAL_PCD_IRQHandler+0x3e8>
 80013aa:	6973      	ldr	r3, [r6, #20]
 80013ac:	061a      	lsls	r2, r3, #24
 80013ae:	bf42      	ittt	mi
 80013b0:	686b      	ldrmi	r3, [r5, #4]
 80013b2:	f443 6380 	orrmi.w	r3, r3, #1024	; 0x400
 80013b6:	606b      	strmi	r3, [r5, #4]
 80013b8:	f89a 3257 	ldrb.w	r3, [sl, #599]	; 0x257
 80013bc:	2b01      	cmp	r3, #1
 80013be:	d106      	bne.n	80013ce <HAL_PCD_IRQHandler+0x3e2>
 80013c0:	2300      	movs	r3, #0
 80013c2:	f88a 3257 	strb.w	r3, [sl, #599]	; 0x257
 80013c6:	4659      	mov	r1, fp
 80013c8:	4620      	mov	r0, r4
 80013ca:	f002 f895 	bl	80034f8 <HAL_PCD_ISOOUTIncompleteCallback>
 80013ce:	2302      	movs	r3, #2
 80013d0:	f8c8 3008 	str.w	r3, [r8, #8]
 80013d4:	f019 0f20 	tst.w	r9, #32
 80013d8:	bf1c      	itt	ne
 80013da:	2320      	movne	r3, #32
 80013dc:	f8c8 3008 	strne.w	r3, [r8, #8]
 80013e0:	f419 5f00 	tst.w	r9, #8192	; 0x2000
 80013e4:	bf1c      	itt	ne
 80013e6:	f44f 5300 	movne.w	r3, #8192	; 0x2000
 80013ea:	f8c8 3008 	strne.w	r3, [r8, #8]
 80013ee:	9b04      	ldr	r3, [sp, #16]
 80013f0:	085b      	lsrs	r3, r3, #1
 80013f2:	3701      	adds	r7, #1
 80013f4:	9304      	str	r3, [sp, #16]
 80013f6:	f108 0820 	add.w	r8, r8, #32
 80013fa:	f10a 0a24 	add.w	sl, sl, #36	; 0x24
 80013fe:	e775      	b.n	80012ec <HAL_PCD_IRQHandler+0x300>
 8001400:	f012 0f28 	tst.w	r2, #40	; 0x28
 8001404:	d1a3      	bne.n	800134e <HAL_PCD_IRQHandler+0x362>
 8001406:	487d      	ldr	r0, [pc, #500]	; (80015fc <HAL_PCD_IRQHandler+0x610>)
 8001408:	4281      	cmp	r1, r0
 800140a:	d901      	bls.n	8001410 <HAL_PCD_IRQHandler+0x424>
 800140c:	0410      	lsls	r0, r2, #16
 800140e:	d497      	bmi.n	8001340 <HAL_PCD_IRQHandler+0x354>
 8001410:	691a      	ldr	r2, [r3, #16]
 8001412:	f8da 3274 	ldr.w	r3, [sl, #628]	; 0x274
 8001416:	f3c2 0212 	ubfx	r2, r2, #0, #19
 800141a:	1a9b      	subs	r3, r3, r2
 800141c:	f8ca 3268 	str.w	r3, [sl, #616]	; 0x268
 8001420:	b977      	cbnz	r7, 8001440 <HAL_PCD_IRQHandler+0x454>
 8001422:	f8d4 2264 	ldr.w	r2, [r4, #612]	; 0x264
 8001426:	b932      	cbnz	r2, 8001436 <HAL_PCD_IRQHandler+0x44a>
 8001428:	f204 429c 	addw	r2, r4, #1180	; 0x49c
 800142c:	2101      	movs	r1, #1
 800142e:	4670      	mov	r0, lr
 8001430:	f001 f948 	bl	80026c4 <USB_EP0_OutStart>
 8001434:	e004      	b.n	8001440 <HAL_PCD_IRQHandler+0x454>
 8001436:	f8d4 2260 	ldr.w	r2, [r4, #608]	; 0x260
 800143a:	441a      	add	r2, r3
 800143c:	f8c4 2260 	str.w	r2, [r4, #608]	; 0x260
 8001440:	4659      	mov	r1, fp
 8001442:	4620      	mov	r0, r4
 8001444:	f002 f806 	bl	8003454 <HAL_PCD_DataOutStageCallback>
 8001448:	e781      	b.n	800134e <HAL_PCD_IRQHandler+0x362>
 800144a:	486d      	ldr	r0, [pc, #436]	; (8001600 <HAL_PCD_IRQHandler+0x614>)
 800144c:	4281      	cmp	r1, r0
 800144e:	d107      	bne.n	8001460 <HAL_PCD_IRQHandler+0x474>
 8001450:	0411      	lsls	r1, r2, #16
 8001452:	f53f af75 	bmi.w	8001340 <HAL_PCD_IRQHandler+0x354>
 8001456:	0690      	lsls	r0, r2, #26
 8001458:	d5f2      	bpl.n	8001440 <HAL_PCD_IRQHandler+0x454>
 800145a:	2220      	movs	r2, #32
 800145c:	609a      	str	r2, [r3, #8]
 800145e:	e7ef      	b.n	8001440 <HAL_PCD_IRQHandler+0x454>
 8001460:	2f00      	cmp	r7, #0
 8001462:	d1ed      	bne.n	8001440 <HAL_PCD_IRQHandler+0x454>
 8001464:	f8d4 3264 	ldr.w	r3, [r4, #612]	; 0x264
 8001468:	2b00      	cmp	r3, #0
 800146a:	d1e9      	bne.n	8001440 <HAL_PCD_IRQHandler+0x454>
 800146c:	f204 429c 	addw	r2, r4, #1180	; 0x49c
 8001470:	4639      	mov	r1, r7
 8001472:	e7dc      	b.n	800142e <HAL_PCD_IRQHandler+0x442>
 8001474:	9b04      	ldr	r3, [sp, #16]
 8001476:	07db      	lsls	r3, r3, #31
 8001478:	f140 809a 	bpl.w	80015b0 <HAL_PCD_IRQHandler+0x5c4>
 800147c:	fa5f fb89 	uxtb.w	fp, r9
 8001480:	4659      	mov	r1, fp
 8001482:	f001 f8fa 	bl	800267a <USB_ReadDevInEPInterrupt>
 8001486:	f010 0f01 	tst.w	r0, #1
 800148a:	4680      	mov	r8, r0
 800148c:	d020      	beq.n	80014d0 <HAL_PCD_IRQHandler+0x4e4>
 800148e:	2101      	movs	r1, #1
 8001490:	6b6b      	ldr	r3, [r5, #52]	; 0x34
 8001492:	f009 020f 	and.w	r2, r9, #15
 8001496:	fa01 f202 	lsl.w	r2, r1, r2
 800149a:	ea23 0302 	bic.w	r3, r3, r2
 800149e:	636b      	str	r3, [r5, #52]	; 0x34
 80014a0:	f8ca 1008 	str.w	r1, [sl, #8]
 80014a4:	460b      	mov	r3, r1
 80014a6:	79a1      	ldrb	r1, [r4, #6]
 80014a8:	4299      	cmp	r1, r3
 80014aa:	d10d      	bne.n	80014c8 <HAL_PCD_IRQHandler+0x4dc>
 80014ac:	e9d7 2307 	ldrd	r2, r3, [r7, #28]
 80014b0:	4413      	add	r3, r2
 80014b2:	623b      	str	r3, [r7, #32]
 80014b4:	f1b9 0f00 	cmp.w	r9, #0
 80014b8:	d106      	bne.n	80014c8 <HAL_PCD_IRQHandler+0x4dc>
 80014ba:	6a63      	ldr	r3, [r4, #36]	; 0x24
 80014bc:	b923      	cbnz	r3, 80014c8 <HAL_PCD_IRQHandler+0x4dc>
 80014be:	6820      	ldr	r0, [r4, #0]
 80014c0:	f204 429c 	addw	r2, r4, #1180	; 0x49c
 80014c4:	f001 f8fe 	bl	80026c4 <USB_EP0_OutStart>
 80014c8:	4659      	mov	r1, fp
 80014ca:	4620      	mov	r0, r4
 80014cc:	f001 ffd8 	bl	8003480 <HAL_PCD_DataInStageCallback>
 80014d0:	f018 0f08 	tst.w	r8, #8
 80014d4:	bf1c      	itt	ne
 80014d6:	2308      	movne	r3, #8
 80014d8:	f8ca 3008 	strne.w	r3, [sl, #8]
 80014dc:	f018 0f10 	tst.w	r8, #16
 80014e0:	bf1c      	itt	ne
 80014e2:	2310      	movne	r3, #16
 80014e4:	f8ca 3008 	strne.w	r3, [sl, #8]
 80014e8:	f018 0f40 	tst.w	r8, #64	; 0x40
 80014ec:	bf1c      	itt	ne
 80014ee:	2340      	movne	r3, #64	; 0x40
 80014f0:	f8ca 3008 	strne.w	r3, [sl, #8]
 80014f4:	f018 0f02 	tst.w	r8, #2
 80014f8:	d010      	beq.n	800151c <HAL_PCD_IRQHandler+0x530>
 80014fa:	4649      	mov	r1, r9
 80014fc:	4630      	mov	r0, r6
 80014fe:	f000 fd1f 	bl	8001f40 <USB_FlushTxFifo>
 8001502:	7dfb      	ldrb	r3, [r7, #23]
 8001504:	2b01      	cmp	r3, #1
 8001506:	d106      	bne.n	8001516 <HAL_PCD_IRQHandler+0x52a>
 8001508:	f04f 0300 	mov.w	r3, #0
 800150c:	75fb      	strb	r3, [r7, #23]
 800150e:	4659      	mov	r1, fp
 8001510:	4620      	mov	r0, r4
 8001512:	f001 fff5 	bl	8003500 <HAL_PCD_ISOINIncompleteCallback>
 8001516:	2302      	movs	r3, #2
 8001518:	f8ca 3008 	str.w	r3, [sl, #8]
 800151c:	6823      	ldr	r3, [r4, #0]
 800151e:	9305      	str	r3, [sp, #20]
 8001520:	f018 0f80 	tst.w	r8, #128	; 0x80
 8001524:	d044      	beq.n	80015b0 <HAL_PCD_IRQHandler+0x5c4>
 8001526:	e9d7 3209 	ldrd	r3, r2, [r7, #36]	; 0x24
 800152a:	429a      	cmp	r2, r3
 800152c:	d840      	bhi.n	80015b0 <HAL_PCD_IRQHandler+0x5c4>
 800152e:	1a9b      	subs	r3, r3, r2
 8001530:	69fa      	ldr	r2, [r7, #28]
 8001532:	4293      	cmp	r3, r2
 8001534:	bf28      	it	cs
 8001536:	4613      	movcs	r3, r2
 8001538:	3303      	adds	r3, #3
 800153a:	089b      	lsrs	r3, r3, #2
 800153c:	9306      	str	r3, [sp, #24]
 800153e:	9b05      	ldr	r3, [sp, #20]
 8001540:	f503 6310 	add.w	r3, r3, #2304	; 0x900
 8001544:	eb03 1349 	add.w	r3, r3, r9, lsl #5
 8001548:	9307      	str	r3, [sp, #28]
 800154a:	9b07      	ldr	r3, [sp, #28]
 800154c:	9806      	ldr	r0, [sp, #24]
 800154e:	6999      	ldr	r1, [r3, #24]
 8001550:	b289      	uxth	r1, r1
 8001552:	4281      	cmp	r1, r0
 8001554:	e9d7 3209 	ldrd	r3, r2, [r7, #36]	; 0x24
 8001558:	d328      	bcc.n	80015ac <HAL_PCD_IRQHandler+0x5c0>
 800155a:	4293      	cmp	r3, r2
 800155c:	d80c      	bhi.n	8001578 <HAL_PCD_IRQHandler+0x58c>
 800155e:	9b05      	ldr	r3, [sp, #20]
 8001560:	f009 010f 	and.w	r1, r9, #15
 8001564:	f8d3 2834 	ldr.w	r2, [r3, #2100]	; 0x834
 8001568:	2001      	movs	r0, #1
 800156a:	fa00 f101 	lsl.w	r1, r0, r1
 800156e:	ea22 0201 	bic.w	r2, r2, r1
 8001572:	f8c3 2834 	str.w	r2, [r3, #2100]	; 0x834
 8001576:	e01b      	b.n	80015b0 <HAL_PCD_IRQHandler+0x5c4>
 8001578:	eba3 0802 	sub.w	r8, r3, r2
 800157c:	69fb      	ldr	r3, [r7, #28]
 800157e:	9805      	ldr	r0, [sp, #20]
 8001580:	4598      	cmp	r8, r3
 8001582:	bf28      	it	cs
 8001584:	4698      	movcs	r8, r3
 8001586:	f108 0303 	add.w	r3, r8, #3
 800158a:	089b      	lsrs	r3, r3, #2
 800158c:	9306      	str	r3, [sp, #24]
 800158e:	79a3      	ldrb	r3, [r4, #6]
 8001590:	9300      	str	r3, [sp, #0]
 8001592:	6a39      	ldr	r1, [r7, #32]
 8001594:	fa1f f388 	uxth.w	r3, r8
 8001598:	465a      	mov	r2, fp
 800159a:	f000 feb9 	bl	8002310 <USB_WritePacket>
 800159e:	6a3b      	ldr	r3, [r7, #32]
 80015a0:	4443      	add	r3, r8
 80015a2:	623b      	str	r3, [r7, #32]
 80015a4:	6abb      	ldr	r3, [r7, #40]	; 0x28
 80015a6:	4443      	add	r3, r8
 80015a8:	62bb      	str	r3, [r7, #40]	; 0x28
 80015aa:	e7ce      	b.n	800154a <HAL_PCD_IRQHandler+0x55e>
 80015ac:	4293      	cmp	r3, r2
 80015ae:	d9d6      	bls.n	800155e <HAL_PCD_IRQHandler+0x572>
 80015b0:	9b04      	ldr	r3, [sp, #16]
 80015b2:	085b      	lsrs	r3, r3, #1
 80015b4:	f109 0901 	add.w	r9, r9, #1
 80015b8:	9304      	str	r3, [sp, #16]
 80015ba:	3724      	adds	r7, #36	; 0x24
 80015bc:	f10a 0a20 	add.w	sl, sl, #32
 80015c0:	e57f      	b.n	80010c2 <HAL_PCD_IRQHandler+0xd6>
 80015c2:	4620      	mov	r0, r4
 80015c4:	f001 ff94 	bl	80034f0 <HAL_PCD_ResumeCallback>
 80015c8:	e594      	b.n	80010f4 <HAL_PCD_IRQHandler+0x108>
 80015ca:	6099      	str	r1, [r3, #8]
 80015cc:	681a      	ldr	r2, [r3, #0]
 80015ce:	f422 1200 	bic.w	r2, r2, #2097152	; 0x200000
 80015d2:	601a      	str	r2, [r3, #0]
 80015d4:	f8c3 1208 	str.w	r1, [r3, #520]	; 0x208
 80015d8:	f8d3 2200 	ldr.w	r2, [r3, #512]	; 0x200
 80015dc:	f422 1200 	bic.w	r2, r2, #2097152	; 0x200000
 80015e0:	f8c3 2200 	str.w	r2, [r3, #512]	; 0x200
 80015e4:	f8d3 2200 	ldr.w	r2, [r3, #512]	; 0x200
 80015e8:	f042 6200 	orr.w	r2, r2, #134217728	; 0x8000000
 80015ec:	f8c3 2200 	str.w	r2, [r3, #512]	; 0x200
 80015f0:	9a03      	ldr	r2, [sp, #12]
 80015f2:	3201      	adds	r2, #1
 80015f4:	9203      	str	r2, [sp, #12]
 80015f6:	3320      	adds	r3, #32
 80015f8:	e5a3      	b.n	8001142 <HAL_PCD_IRQHandler+0x156>
 80015fa:	bf00      	nop
 80015fc:	4f54300a 	.word	0x4f54300a
 8001600:	4f54310a 	.word	0x4f54310a
 8001604:	696b      	ldr	r3, [r5, #20]
 8001606:	f443 5300 	orr.w	r3, r3, #8192	; 0x2000
 800160a:	f043 032b 	orr.w	r3, r3, #43	; 0x2b
 800160e:	616b      	str	r3, [r5, #20]
 8001610:	692b      	ldr	r3, [r5, #16]
 8001612:	f043 030b 	orr.w	r3, r3, #11
 8001616:	612b      	str	r3, [r5, #16]
 8001618:	e5a9      	b.n	800116e <HAL_PCD_IRQHandler+0x182>
 800161a:	69b3      	ldr	r3, [r6, #24]
 800161c:	f023 0380 	bic.w	r3, r3, #128	; 0x80
 8001620:	61b3      	str	r3, [r6, #24]
 8001622:	2701      	movs	r7, #1
 8001624:	f204 2857 	addw	r8, r4, #599	; 0x257
 8001628:	f04f 0924 	mov.w	r9, #36	; 0x24
 800162c:	7923      	ldrb	r3, [r4, #4]
 800162e:	42bb      	cmp	r3, r7
 8001630:	f67f addd 	bls.w	80011ee <HAL_PCD_IRQHandler+0x202>
 8001634:	fb09 f307 	mul.w	r3, r9, r7
 8001638:	f818 3003 	ldrb.w	r3, [r8, r3]
 800163c:	2b01      	cmp	r3, #1
 800163e:	d103      	bne.n	8001648 <HAL_PCD_IRQHandler+0x65c>
 8001640:	b2f9      	uxtb	r1, r7
 8001642:	4620      	mov	r0, r4
 8001644:	f7ff fcc1 	bl	8000fca <HAL_PCD_EP_Abort>
 8001648:	3701      	adds	r7, #1
 800164a:	e7ef      	b.n	800162c <HAL_PCD_IRQHandler+0x640>
 800164c:	f898 303c 	ldrb.w	r3, [r8, #60]	; 0x3c
 8001650:	f8d9 2000 	ldr.w	r2, [r9]
 8001654:	2b01      	cmp	r3, #1
 8001656:	d109      	bne.n	800166c <HAL_PCD_IRQHandler+0x680>
 8001658:	2a00      	cmp	r2, #0
 800165a:	da07      	bge.n	800166c <HAL_PCD_IRQHandler+0x680>
 800165c:	f067 017f 	orn	r1, r7, #127	; 0x7f
 8001660:	f888 303b 	strb.w	r3, [r8, #59]	; 0x3b
 8001664:	b2c9      	uxtb	r1, r1
 8001666:	4620      	mov	r0, r4
 8001668:	f7ff fcaf 	bl	8000fca <HAL_PCD_EP_Abort>
 800166c:	3701      	adds	r7, #1
 800166e:	f108 0824 	add.w	r8, r8, #36	; 0x24
 8001672:	f109 0920 	add.w	r9, r9, #32
 8001676:	e5c3      	b.n	8001200 <HAL_PCD_IRQHandler+0x214>
 8001678:	3101      	adds	r1, #1
 800167a:	3324      	adds	r3, #36	; 0x24
 800167c:	3020      	adds	r0, #32
 800167e:	e5d3      	b.n	8001228 <HAL_PCD_IRQHandler+0x23c>

08001680 <HAL_PCDEx_SetTxFiFo>:
 8001680:	6800      	ldr	r0, [r0, #0]
 8001682:	b570      	push	{r4, r5, r6, lr}
 8001684:	0412      	lsls	r2, r2, #16
 8001686:	6a44      	ldr	r4, [r0, #36]	; 0x24
 8001688:	b919      	cbnz	r1, 8001692 <HAL_PCDEx_SetTxFiFo+0x12>
 800168a:	4322      	orrs	r2, r4
 800168c:	6282      	str	r2, [r0, #40]	; 0x28
 800168e:	2000      	movs	r0, #0
 8001690:	bd70      	pop	{r4, r5, r6, pc}
 8001692:	6a83      	ldr	r3, [r0, #40]	; 0x28
 8001694:	1e4d      	subs	r5, r1, #1
 8001696:	eb04 4413 	add.w	r4, r4, r3, lsr #16
 800169a:	2300      	movs	r3, #0
 800169c:	1c5e      	adds	r6, r3, #1
 800169e:	b2db      	uxtb	r3, r3
 80016a0:	429d      	cmp	r5, r3
 80016a2:	d805      	bhi.n	80016b0 <HAL_PCDEx_SetTxFiFo+0x30>
 80016a4:	313f      	adds	r1, #63	; 0x3f
 80016a6:	eb00 0081 	add.w	r0, r0, r1, lsl #2
 80016aa:	4322      	orrs	r2, r4
 80016ac:	6042      	str	r2, [r0, #4]
 80016ae:	e7ee      	b.n	800168e <HAL_PCDEx_SetTxFiFo+0xe>
 80016b0:	3340      	adds	r3, #64	; 0x40
 80016b2:	eb00 0383 	add.w	r3, r0, r3, lsl #2
 80016b6:	685b      	ldr	r3, [r3, #4]
 80016b8:	eb04 4413 	add.w	r4, r4, r3, lsr #16
 80016bc:	4633      	mov	r3, r6
 80016be:	e7ed      	b.n	800169c <HAL_PCDEx_SetTxFiFo+0x1c>

080016c0 <HAL_PCDEx_SetRxFiFo>:
 80016c0:	6803      	ldr	r3, [r0, #0]
 80016c2:	2000      	movs	r0, #0
 80016c4:	6259      	str	r1, [r3, #36]	; 0x24
 80016c6:	4770      	bx	lr

080016c8 <HAL_PCDEx_LPM_Callback>:
 80016c8:	4770      	bx	lr
	...

080016cc <HAL_RCC_OscConfig>:
 80016cc:	e92d 41f3 	stmdb	sp!, {r0, r1, r4, r5, r6, r7, r8, lr}
 80016d0:	4604      	mov	r4, r0
 80016d2:	b340      	cbz	r0, 8001726 <HAL_RCC_OscConfig+0x5a>
 80016d4:	6803      	ldr	r3, [r0, #0]
 80016d6:	07dd      	lsls	r5, r3, #31
 80016d8:	d410      	bmi.n	80016fc <HAL_RCC_OscConfig+0x30>
 80016da:	6823      	ldr	r3, [r4, #0]
 80016dc:	0798      	lsls	r0, r3, #30
 80016de:	d45b      	bmi.n	8001798 <HAL_RCC_OscConfig+0xcc>
 80016e0:	6823      	ldr	r3, [r4, #0]
 80016e2:	071a      	lsls	r2, r3, #28
 80016e4:	f100 809d 	bmi.w	8001822 <HAL_RCC_OscConfig+0x156>
 80016e8:	6823      	ldr	r3, [r4, #0]
 80016ea:	075b      	lsls	r3, r3, #29
 80016ec:	f100 80bd 	bmi.w	800186a <HAL_RCC_OscConfig+0x19e>
 80016f0:	69a0      	ldr	r0, [r4, #24]
 80016f2:	2800      	cmp	r0, #0
 80016f4:	f040 8124 	bne.w	8001940 <HAL_RCC_OscConfig+0x274>
 80016f8:	2000      	movs	r0, #0
 80016fa:	e02c      	b.n	8001756 <HAL_RCC_OscConfig+0x8a>
 80016fc:	4b8d      	ldr	r3, [pc, #564]	; (8001934 <HAL_RCC_OscConfig+0x268>)
 80016fe:	689a      	ldr	r2, [r3, #8]
 8001700:	f002 020c 	and.w	r2, r2, #12
 8001704:	2a04      	cmp	r2, #4
 8001706:	d007      	beq.n	8001718 <HAL_RCC_OscConfig+0x4c>
 8001708:	689a      	ldr	r2, [r3, #8]
 800170a:	f002 020c 	and.w	r2, r2, #12
 800170e:	2a08      	cmp	r2, #8
 8001710:	d10b      	bne.n	800172a <HAL_RCC_OscConfig+0x5e>
 8001712:	685b      	ldr	r3, [r3, #4]
 8001714:	0259      	lsls	r1, r3, #9
 8001716:	d508      	bpl.n	800172a <HAL_RCC_OscConfig+0x5e>
 8001718:	4b86      	ldr	r3, [pc, #536]	; (8001934 <HAL_RCC_OscConfig+0x268>)
 800171a:	681b      	ldr	r3, [r3, #0]
 800171c:	039a      	lsls	r2, r3, #14
 800171e:	d5dc      	bpl.n	80016da <HAL_RCC_OscConfig+0xe>
 8001720:	6863      	ldr	r3, [r4, #4]
 8001722:	2b00      	cmp	r3, #0
 8001724:	d1d9      	bne.n	80016da <HAL_RCC_OscConfig+0xe>
 8001726:	2001      	movs	r0, #1
 8001728:	e015      	b.n	8001756 <HAL_RCC_OscConfig+0x8a>
 800172a:	6863      	ldr	r3, [r4, #4]
 800172c:	4d81      	ldr	r5, [pc, #516]	; (8001934 <HAL_RCC_OscConfig+0x268>)
 800172e:	f5b3 3f80 	cmp.w	r3, #65536	; 0x10000
 8001732:	d113      	bne.n	800175c <HAL_RCC_OscConfig+0x90>
 8001734:	682b      	ldr	r3, [r5, #0]
 8001736:	f443 3380 	orr.w	r3, r3, #65536	; 0x10000
 800173a:	602b      	str	r3, [r5, #0]
 800173c:	f7ff f92e 	bl	800099c <HAL_GetTick>
 8001740:	4e7c      	ldr	r6, [pc, #496]	; (8001934 <HAL_RCC_OscConfig+0x268>)
 8001742:	4605      	mov	r5, r0
 8001744:	6833      	ldr	r3, [r6, #0]
 8001746:	039b      	lsls	r3, r3, #14
 8001748:	d4c7      	bmi.n	80016da <HAL_RCC_OscConfig+0xe>
 800174a:	f7ff f927 	bl	800099c <HAL_GetTick>
 800174e:	1b40      	subs	r0, r0, r5
 8001750:	2864      	cmp	r0, #100	; 0x64
 8001752:	d9f7      	bls.n	8001744 <HAL_RCC_OscConfig+0x78>
 8001754:	2003      	movs	r0, #3
 8001756:	b002      	add	sp, #8
 8001758:	e8bd 81f0 	ldmia.w	sp!, {r4, r5, r6, r7, r8, pc}
 800175c:	f5b3 2fa0 	cmp.w	r3, #327680	; 0x50000
 8001760:	d104      	bne.n	800176c <HAL_RCC_OscConfig+0xa0>
 8001762:	682b      	ldr	r3, [r5, #0]
 8001764:	f443 2380 	orr.w	r3, r3, #262144	; 0x40000
 8001768:	602b      	str	r3, [r5, #0]
 800176a:	e7e3      	b.n	8001734 <HAL_RCC_OscConfig+0x68>
 800176c:	682a      	ldr	r2, [r5, #0]
 800176e:	f422 3280 	bic.w	r2, r2, #65536	; 0x10000
 8001772:	602a      	str	r2, [r5, #0]
 8001774:	682a      	ldr	r2, [r5, #0]
 8001776:	f422 2280 	bic.w	r2, r2, #262144	; 0x40000
 800177a:	602a      	str	r2, [r5, #0]
 800177c:	2b00      	cmp	r3, #0
 800177e:	d1dd      	bne.n	800173c <HAL_RCC_OscConfig+0x70>
 8001780:	f7ff f90c 	bl	800099c <HAL_GetTick>
 8001784:	4606      	mov	r6, r0
 8001786:	682b      	ldr	r3, [r5, #0]
 8001788:	039f      	lsls	r7, r3, #14
 800178a:	d5a6      	bpl.n	80016da <HAL_RCC_OscConfig+0xe>
 800178c:	f7ff f906 	bl	800099c <HAL_GetTick>
 8001790:	1b80      	subs	r0, r0, r6
 8001792:	2864      	cmp	r0, #100	; 0x64
 8001794:	d9f7      	bls.n	8001786 <HAL_RCC_OscConfig+0xba>
 8001796:	e7dd      	b.n	8001754 <HAL_RCC_OscConfig+0x88>
 8001798:	4b66      	ldr	r3, [pc, #408]	; (8001934 <HAL_RCC_OscConfig+0x268>)
 800179a:	689a      	ldr	r2, [r3, #8]
 800179c:	f012 0f0c 	tst.w	r2, #12
 80017a0:	d007      	beq.n	80017b2 <HAL_RCC_OscConfig+0xe6>
 80017a2:	689a      	ldr	r2, [r3, #8]
 80017a4:	f002 020c 	and.w	r2, r2, #12
 80017a8:	2a08      	cmp	r2, #8
 80017aa:	d111      	bne.n	80017d0 <HAL_RCC_OscConfig+0x104>
 80017ac:	685b      	ldr	r3, [r3, #4]
 80017ae:	025e      	lsls	r6, r3, #9
 80017b0:	d40e      	bmi.n	80017d0 <HAL_RCC_OscConfig+0x104>
 80017b2:	4a60      	ldr	r2, [pc, #384]	; (8001934 <HAL_RCC_OscConfig+0x268>)
 80017b4:	6813      	ldr	r3, [r2, #0]
 80017b6:	079d      	lsls	r5, r3, #30
 80017b8:	d502      	bpl.n	80017c0 <HAL_RCC_OscConfig+0xf4>
 80017ba:	68e3      	ldr	r3, [r4, #12]
 80017bc:	2b01      	cmp	r3, #1
 80017be:	d1b2      	bne.n	8001726 <HAL_RCC_OscConfig+0x5a>
 80017c0:	6813      	ldr	r3, [r2, #0]
 80017c2:	6921      	ldr	r1, [r4, #16]
 80017c4:	f023 03f8 	bic.w	r3, r3, #248	; 0xf8
 80017c8:	ea43 03c1 	orr.w	r3, r3, r1, lsl #3
 80017cc:	6013      	str	r3, [r2, #0]
 80017ce:	e787      	b.n	80016e0 <HAL_RCC_OscConfig+0x14>
 80017d0:	68e2      	ldr	r2, [r4, #12]
 80017d2:	4b59      	ldr	r3, [pc, #356]	; (8001938 <HAL_RCC_OscConfig+0x26c>)
 80017d4:	b1b2      	cbz	r2, 8001804 <HAL_RCC_OscConfig+0x138>
 80017d6:	2201      	movs	r2, #1
 80017d8:	601a      	str	r2, [r3, #0]
 80017da:	f7ff f8df 	bl	800099c <HAL_GetTick>
 80017de:	4d55      	ldr	r5, [pc, #340]	; (8001934 <HAL_RCC_OscConfig+0x268>)
 80017e0:	4606      	mov	r6, r0
 80017e2:	682b      	ldr	r3, [r5, #0]
 80017e4:	0798      	lsls	r0, r3, #30
 80017e6:	d507      	bpl.n	80017f8 <HAL_RCC_OscConfig+0x12c>
 80017e8:	682b      	ldr	r3, [r5, #0]
 80017ea:	6922      	ldr	r2, [r4, #16]
 80017ec:	f023 03f8 	bic.w	r3, r3, #248	; 0xf8
 80017f0:	ea43 03c2 	orr.w	r3, r3, r2, lsl #3
 80017f4:	602b      	str	r3, [r5, #0]
 80017f6:	e773      	b.n	80016e0 <HAL_RCC_OscConfig+0x14>
 80017f8:	f7ff f8d0 	bl	800099c <HAL_GetTick>
 80017fc:	1b80      	subs	r0, r0, r6
 80017fe:	2802      	cmp	r0, #2
 8001800:	d9ef      	bls.n	80017e2 <HAL_RCC_OscConfig+0x116>
 8001802:	e7a7      	b.n	8001754 <HAL_RCC_OscConfig+0x88>
 8001804:	601a      	str	r2, [r3, #0]
 8001806:	f7ff f8c9 	bl	800099c <HAL_GetTick>
 800180a:	4e4a      	ldr	r6, [pc, #296]	; (8001934 <HAL_RCC_OscConfig+0x268>)
 800180c:	4605      	mov	r5, r0
 800180e:	6833      	ldr	r3, [r6, #0]
 8001810:	0799      	lsls	r1, r3, #30
 8001812:	f57f af65 	bpl.w	80016e0 <HAL_RCC_OscConfig+0x14>
 8001816:	f7ff f8c1 	bl	800099c <HAL_GetTick>
 800181a:	1b40      	subs	r0, r0, r5
 800181c:	2802      	cmp	r0, #2
 800181e:	d9f6      	bls.n	800180e <HAL_RCC_OscConfig+0x142>
 8001820:	e798      	b.n	8001754 <HAL_RCC_OscConfig+0x88>
 8001822:	6962      	ldr	r2, [r4, #20]
 8001824:	4b44      	ldr	r3, [pc, #272]	; (8001938 <HAL_RCC_OscConfig+0x26c>)
 8001826:	b182      	cbz	r2, 800184a <HAL_RCC_OscConfig+0x17e>
 8001828:	2201      	movs	r2, #1
 800182a:	f8c3 2e80 	str.w	r2, [r3, #3712]	; 0xe80
 800182e:	f7ff f8b5 	bl	800099c <HAL_GetTick>
 8001832:	4e40      	ldr	r6, [pc, #256]	; (8001934 <HAL_RCC_OscConfig+0x268>)
 8001834:	4605      	mov	r5, r0
 8001836:	6f73      	ldr	r3, [r6, #116]	; 0x74
 8001838:	079f      	lsls	r7, r3, #30
 800183a:	f53f af55 	bmi.w	80016e8 <HAL_RCC_OscConfig+0x1c>
 800183e:	f7ff f8ad 	bl	800099c <HAL_GetTick>
 8001842:	1b40      	subs	r0, r0, r5
 8001844:	2802      	cmp	r0, #2
 8001846:	d9f6      	bls.n	8001836 <HAL_RCC_OscConfig+0x16a>
 8001848:	e784      	b.n	8001754 <HAL_RCC_OscConfig+0x88>
 800184a:	f8c3 2e80 	str.w	r2, [r3, #3712]	; 0xe80
 800184e:	f7ff f8a5 	bl	800099c <HAL_GetTick>
 8001852:	4e38      	ldr	r6, [pc, #224]	; (8001934 <HAL_RCC_OscConfig+0x268>)
 8001854:	4605      	mov	r5, r0
 8001856:	6f73      	ldr	r3, [r6, #116]	; 0x74
 8001858:	0798      	lsls	r0, r3, #30
 800185a:	f57f af45 	bpl.w	80016e8 <HAL_RCC_OscConfig+0x1c>
 800185e:	f7ff f89d 	bl	800099c <HAL_GetTick>
 8001862:	1b40      	subs	r0, r0, r5
 8001864:	2802      	cmp	r0, #2
 8001866:	d9f6      	bls.n	8001856 <HAL_RCC_OscConfig+0x18a>
 8001868:	e774      	b.n	8001754 <HAL_RCC_OscConfig+0x88>
 800186a:	4b32      	ldr	r3, [pc, #200]	; (8001934 <HAL_RCC_OscConfig+0x268>)
 800186c:	6c1a      	ldr	r2, [r3, #64]	; 0x40
 800186e:	f012 5280 	ands.w	r2, r2, #268435456	; 0x10000000
 8001872:	d128      	bne.n	80018c6 <HAL_RCC_OscConfig+0x1fa>
 8001874:	9201      	str	r2, [sp, #4]
 8001876:	6c1a      	ldr	r2, [r3, #64]	; 0x40
 8001878:	f042 5280 	orr.w	r2, r2, #268435456	; 0x10000000
 800187c:	641a      	str	r2, [r3, #64]	; 0x40
 800187e:	6c1b      	ldr	r3, [r3, #64]	; 0x40
 8001880:	f003 5380 	and.w	r3, r3, #268435456	; 0x10000000
 8001884:	9301      	str	r3, [sp, #4]
 8001886:	9b01      	ldr	r3, [sp, #4]
 8001888:	2701      	movs	r7, #1
 800188a:	4d2c      	ldr	r5, [pc, #176]	; (800193c <HAL_RCC_OscConfig+0x270>)
 800188c:	682b      	ldr	r3, [r5, #0]
 800188e:	05d9      	lsls	r1, r3, #23
 8001890:	d51b      	bpl.n	80018ca <HAL_RCC_OscConfig+0x1fe>
 8001892:	68a3      	ldr	r3, [r4, #8]
 8001894:	4d27      	ldr	r5, [pc, #156]	; (8001934 <HAL_RCC_OscConfig+0x268>)
 8001896:	2b01      	cmp	r3, #1
 8001898:	d127      	bne.n	80018ea <HAL_RCC_OscConfig+0x21e>
 800189a:	6f2b      	ldr	r3, [r5, #112]	; 0x70
 800189c:	f043 0301 	orr.w	r3, r3, #1
 80018a0:	672b      	str	r3, [r5, #112]	; 0x70
 80018a2:	f7ff f87b 	bl	800099c <HAL_GetTick>
 80018a6:	4e23      	ldr	r6, [pc, #140]	; (8001934 <HAL_RCC_OscConfig+0x268>)
 80018a8:	4605      	mov	r5, r0
 80018aa:	f241 3888 	movw	r8, #5000	; 0x1388
 80018ae:	6f33      	ldr	r3, [r6, #112]	; 0x70
 80018b0:	079b      	lsls	r3, r3, #30
 80018b2:	d539      	bpl.n	8001928 <HAL_RCC_OscConfig+0x25c>
 80018b4:	2f00      	cmp	r7, #0
 80018b6:	f43f af1b 	beq.w	80016f0 <HAL_RCC_OscConfig+0x24>
 80018ba:	4a1e      	ldr	r2, [pc, #120]	; (8001934 <HAL_RCC_OscConfig+0x268>)
 80018bc:	6c13      	ldr	r3, [r2, #64]	; 0x40
 80018be:	f023 5380 	bic.w	r3, r3, #268435456	; 0x10000000
 80018c2:	6413      	str	r3, [r2, #64]	; 0x40
 80018c4:	e714      	b.n	80016f0 <HAL_RCC_OscConfig+0x24>
 80018c6:	2700      	movs	r7, #0
 80018c8:	e7df      	b.n	800188a <HAL_RCC_OscConfig+0x1be>
 80018ca:	682b      	ldr	r3, [r5, #0]
 80018cc:	f443 7380 	orr.w	r3, r3, #256	; 0x100
 80018d0:	602b      	str	r3, [r5, #0]
 80018d2:	f7ff f863 	bl	800099c <HAL_GetTick>
 80018d6:	4606      	mov	r6, r0
 80018d8:	682b      	ldr	r3, [r5, #0]
 80018da:	05da      	lsls	r2, r3, #23
 80018dc:	d4d9      	bmi.n	8001892 <HAL_RCC_OscConfig+0x1c6>
 80018de:	f7ff f85d 	bl	800099c <HAL_GetTick>
 80018e2:	1b80      	subs	r0, r0, r6
 80018e4:	2802      	cmp	r0, #2
 80018e6:	d9f7      	bls.n	80018d8 <HAL_RCC_OscConfig+0x20c>
 80018e8:	e734      	b.n	8001754 <HAL_RCC_OscConfig+0x88>
 80018ea:	2b05      	cmp	r3, #5
 80018ec:	d104      	bne.n	80018f8 <HAL_RCC_OscConfig+0x22c>
 80018ee:	6f2b      	ldr	r3, [r5, #112]	; 0x70
 80018f0:	f043 0304 	orr.w	r3, r3, #4
 80018f4:	672b      	str	r3, [r5, #112]	; 0x70
 80018f6:	e7d0      	b.n	800189a <HAL_RCC_OscConfig+0x1ce>
 80018f8:	6f2a      	ldr	r2, [r5, #112]	; 0x70
 80018fa:	f022 0201 	bic.w	r2, r2, #1
 80018fe:	672a      	str	r2, [r5, #112]	; 0x70
 8001900:	6f2a      	ldr	r2, [r5, #112]	; 0x70
 8001902:	f022 0204 	bic.w	r2, r2, #4
 8001906:	672a      	str	r2, [r5, #112]	; 0x70
 8001908:	2b00      	cmp	r3, #0
 800190a:	d1ca      	bne.n	80018a2 <HAL_RCC_OscConfig+0x1d6>
 800190c:	f7ff f846 	bl	800099c <HAL_GetTick>
 8001910:	f241 3888 	movw	r8, #5000	; 0x1388
 8001914:	4606      	mov	r6, r0
 8001916:	6f2b      	ldr	r3, [r5, #112]	; 0x70
 8001918:	0798      	lsls	r0, r3, #30
 800191a:	d5cb      	bpl.n	80018b4 <HAL_RCC_OscConfig+0x1e8>
 800191c:	f7ff f83e 	bl	800099c <HAL_GetTick>
 8001920:	1b80      	subs	r0, r0, r6
 8001922:	4540      	cmp	r0, r8
 8001924:	d9f7      	bls.n	8001916 <HAL_RCC_OscConfig+0x24a>
 8001926:	e715      	b.n	8001754 <HAL_RCC_OscConfig+0x88>
 8001928:	f7ff f838 	bl	800099c <HAL_GetTick>
 800192c:	1b40      	subs	r0, r0, r5
 800192e:	4540      	cmp	r0, r8
 8001930:	d9bd      	bls.n	80018ae <HAL_RCC_OscConfig+0x1e2>
 8001932:	e70f      	b.n	8001754 <HAL_RCC_OscConfig+0x88>
 8001934:	40023800 	.word	0x40023800
 8001938:	42470000 	.word	0x42470000
 800193c:	40007000 	.word	0x40007000
 8001940:	4d36      	ldr	r5, [pc, #216]	; (8001a1c <HAL_RCC_OscConfig+0x350>)
 8001942:	68ab      	ldr	r3, [r5, #8]
 8001944:	f003 030c 	and.w	r3, r3, #12
 8001948:	2b08      	cmp	r3, #8
 800194a:	d03d      	beq.n	80019c8 <HAL_RCC_OscConfig+0x2fc>
 800194c:	4b34      	ldr	r3, [pc, #208]	; (8001a20 <HAL_RCC_OscConfig+0x354>)
 800194e:	2200      	movs	r2, #0
 8001950:	2802      	cmp	r0, #2
 8001952:	661a      	str	r2, [r3, #96]	; 0x60
 8001954:	d12b      	bne.n	80019ae <HAL_RCC_OscConfig+0x2e2>
 8001956:	f7ff f821 	bl	800099c <HAL_GetTick>
 800195a:	4606      	mov	r6, r0
 800195c:	682b      	ldr	r3, [r5, #0]
 800195e:	0199      	lsls	r1, r3, #6
 8001960:	d41f      	bmi.n	80019a2 <HAL_RCC_OscConfig+0x2d6>
 8001962:	e9d4 3207 	ldrd	r3, r2, [r4, #28]
 8001966:	4313      	orrs	r3, r2
 8001968:	6a62      	ldr	r2, [r4, #36]	; 0x24
 800196a:	ea43 1382 	orr.w	r3, r3, r2, lsl #6
 800196e:	6ae2      	ldr	r2, [r4, #44]	; 0x2c
 8001970:	ea43 6302 	orr.w	r3, r3, r2, lsl #24
 8001974:	6aa2      	ldr	r2, [r4, #40]	; 0x28
 8001976:	0852      	lsrs	r2, r2, #1
 8001978:	3a01      	subs	r2, #1
 800197a:	ea43 4302 	orr.w	r3, r3, r2, lsl #16
 800197e:	606b      	str	r3, [r5, #4]
 8001980:	4b27      	ldr	r3, [pc, #156]	; (8001a20 <HAL_RCC_OscConfig+0x354>)
 8001982:	4d26      	ldr	r5, [pc, #152]	; (8001a1c <HAL_RCC_OscConfig+0x350>)
 8001984:	2201      	movs	r2, #1
 8001986:	661a      	str	r2, [r3, #96]	; 0x60
 8001988:	f7ff f808 	bl	800099c <HAL_GetTick>
 800198c:	4604      	mov	r4, r0
 800198e:	682b      	ldr	r3, [r5, #0]
 8001990:	019a      	lsls	r2, r3, #6
 8001992:	f53f aeb1 	bmi.w	80016f8 <HAL_RCC_OscConfig+0x2c>
 8001996:	f7ff f801 	bl	800099c <HAL_GetTick>
 800199a:	1b00      	subs	r0, r0, r4
 800199c:	2802      	cmp	r0, #2
 800199e:	d9f6      	bls.n	800198e <HAL_RCC_OscConfig+0x2c2>
 80019a0:	e6d8      	b.n	8001754 <HAL_RCC_OscConfig+0x88>
 80019a2:	f7fe fffb 	bl	800099c <HAL_GetTick>
 80019a6:	1b80      	subs	r0, r0, r6
 80019a8:	2802      	cmp	r0, #2
 80019aa:	d9d7      	bls.n	800195c <HAL_RCC_OscConfig+0x290>
 80019ac:	e6d2      	b.n	8001754 <HAL_RCC_OscConfig+0x88>
 80019ae:	f7fe fff5 	bl	800099c <HAL_GetTick>
 80019b2:	4604      	mov	r4, r0
 80019b4:	682b      	ldr	r3, [r5, #0]
 80019b6:	019b      	lsls	r3, r3, #6
 80019b8:	f57f ae9e 	bpl.w	80016f8 <HAL_RCC_OscConfig+0x2c>
 80019bc:	f7fe ffee 	bl	800099c <HAL_GetTick>
 80019c0:	1b00      	subs	r0, r0, r4
 80019c2:	2802      	cmp	r0, #2
 80019c4:	d9f6      	bls.n	80019b4 <HAL_RCC_OscConfig+0x2e8>
 80019c6:	e6c5      	b.n	8001754 <HAL_RCC_OscConfig+0x88>
 80019c8:	2801      	cmp	r0, #1
 80019ca:	f43f aec4 	beq.w	8001756 <HAL_RCC_OscConfig+0x8a>
 80019ce:	686b      	ldr	r3, [r5, #4]
 80019d0:	69e2      	ldr	r2, [r4, #28]
 80019d2:	f403 0180 	and.w	r1, r3, #4194304	; 0x400000
 80019d6:	4291      	cmp	r1, r2
 80019d8:	f47f aea5 	bne.w	8001726 <HAL_RCC_OscConfig+0x5a>
 80019dc:	6a21      	ldr	r1, [r4, #32]
 80019de:	f003 023f 	and.w	r2, r3, #63	; 0x3f
 80019e2:	428a      	cmp	r2, r1
 80019e4:	f47f ae9f 	bne.w	8001726 <HAL_RCC_OscConfig+0x5a>
 80019e8:	6a61      	ldr	r1, [r4, #36]	; 0x24
 80019ea:	f647 72c0 	movw	r2, #32704	; 0x7fc0
 80019ee:	401a      	ands	r2, r3
 80019f0:	ebb2 1f81 	cmp.w	r2, r1, lsl #6
 80019f4:	f47f ae97 	bne.w	8001726 <HAL_RCC_OscConfig+0x5a>
 80019f8:	6aa2      	ldr	r2, [r4, #40]	; 0x28
 80019fa:	0852      	lsrs	r2, r2, #1
 80019fc:	f403 3140 	and.w	r1, r3, #196608	; 0x30000
 8001a00:	3a01      	subs	r2, #1
 8001a02:	ebb1 4f02 	cmp.w	r1, r2, lsl #16
 8001a06:	f47f ae8e 	bne.w	8001726 <HAL_RCC_OscConfig+0x5a>
 8001a0a:	6ae2      	ldr	r2, [r4, #44]	; 0x2c
 8001a0c:	f003 6370 	and.w	r3, r3, #251658240	; 0xf000000
 8001a10:	ebb3 6f02 	cmp.w	r3, r2, lsl #24
 8001a14:	f43f ae70 	beq.w	80016f8 <HAL_RCC_OscConfig+0x2c>
 8001a18:	e685      	b.n	8001726 <HAL_RCC_OscConfig+0x5a>
 8001a1a:	bf00      	nop
 8001a1c:	40023800 	.word	0x40023800
 8001a20:	42470000 	.word	0x42470000

08001a24 <HAL_RCC_GetSysClockFreq>:
 8001a24:	4913      	ldr	r1, [pc, #76]	; (8001a74 <HAL_RCC_GetSysClockFreq+0x50>)
 8001a26:	b508      	push	{r3, lr}
 8001a28:	688b      	ldr	r3, [r1, #8]
 8001a2a:	f003 030c 	and.w	r3, r3, #12
 8001a2e:	2b04      	cmp	r3, #4
 8001a30:	d01c      	beq.n	8001a6c <HAL_RCC_GetSysClockFreq+0x48>
 8001a32:	2b08      	cmp	r3, #8
 8001a34:	d11c      	bne.n	8001a70 <HAL_RCC_GetSysClockFreq+0x4c>
 8001a36:	684a      	ldr	r2, [r1, #4]
 8001a38:	684b      	ldr	r3, [r1, #4]
 8001a3a:	6849      	ldr	r1, [r1, #4]
 8001a3c:	f413 0380 	ands.w	r3, r3, #4194304	; 0x400000
 8001a40:	bf14      	ite	ne
 8001a42:	480d      	ldrne	r0, [pc, #52]	; (8001a78 <HAL_RCC_GetSysClockFreq+0x54>)
 8001a44:	480d      	ldreq	r0, [pc, #52]	; (8001a7c <HAL_RCC_GetSysClockFreq+0x58>)
 8001a46:	f3c1 1188 	ubfx	r1, r1, #6, #9
 8001a4a:	bf18      	it	ne
 8001a4c:	2300      	movne	r3, #0
 8001a4e:	f002 023f 	and.w	r2, r2, #63	; 0x3f
 8001a52:	fba1 0100 	umull	r0, r1, r1, r0
 8001a56:	f7fe fc0b 	bl	8000270 <__aeabi_uldivmod>
 8001a5a:	4b06      	ldr	r3, [pc, #24]	; (8001a74 <HAL_RCC_GetSysClockFreq+0x50>)
 8001a5c:	685b      	ldr	r3, [r3, #4]
 8001a5e:	f3c3 4301 	ubfx	r3, r3, #16, #2
 8001a62:	3301      	adds	r3, #1
 8001a64:	005b      	lsls	r3, r3, #1
 8001a66:	fbb0 f0f3 	udiv	r0, r0, r3
 8001a6a:	bd08      	pop	{r3, pc}
 8001a6c:	4802      	ldr	r0, [pc, #8]	; (8001a78 <HAL_RCC_GetSysClockFreq+0x54>)
 8001a6e:	e7fc      	b.n	8001a6a <HAL_RCC_GetSysClockFreq+0x46>
 8001a70:	4802      	ldr	r0, [pc, #8]	; (8001a7c <HAL_RCC_GetSysClockFreq+0x58>)
 8001a72:	e7fa      	b.n	8001a6a <HAL_RCC_GetSysClockFreq+0x46>
 8001a74:	40023800 	.word	0x40023800
 8001a78:	007a1200 	.word	0x007a1200
 8001a7c:	00f42400 	.word	0x00f42400

08001a80 <HAL_RCC_ClockConfig>:
 8001a80:	e92d 41f0 	stmdb	sp!, {r4, r5, r6, r7, r8, lr}
 8001a84:	460d      	mov	r5, r1
 8001a86:	4604      	mov	r4, r0
 8001a88:	b910      	cbnz	r0, 8001a90 <HAL_RCC_ClockConfig+0x10>
 8001a8a:	2001      	movs	r0, #1
 8001a8c:	e8bd 81f0 	ldmia.w	sp!, {r4, r5, r6, r7, r8, pc}
 8001a90:	4b43      	ldr	r3, [pc, #268]	; (8001ba0 <HAL_RCC_ClockConfig+0x120>)
 8001a92:	681a      	ldr	r2, [r3, #0]
 8001a94:	f002 0207 	and.w	r2, r2, #7
 8001a98:	428a      	cmp	r2, r1
 8001a9a:	d328      	bcc.n	8001aee <HAL_RCC_ClockConfig+0x6e>
 8001a9c:	6821      	ldr	r1, [r4, #0]
 8001a9e:	078f      	lsls	r7, r1, #30
 8001aa0:	d42d      	bmi.n	8001afe <HAL_RCC_ClockConfig+0x7e>
 8001aa2:	07c8      	lsls	r0, r1, #31
 8001aa4:	d440      	bmi.n	8001b28 <HAL_RCC_ClockConfig+0xa8>
 8001aa6:	4b3e      	ldr	r3, [pc, #248]	; (8001ba0 <HAL_RCC_ClockConfig+0x120>)
 8001aa8:	681a      	ldr	r2, [r3, #0]
 8001aaa:	f002 0207 	and.w	r2, r2, #7
 8001aae:	42aa      	cmp	r2, r5
 8001ab0:	d865      	bhi.n	8001b7e <HAL_RCC_ClockConfig+0xfe>
 8001ab2:	6822      	ldr	r2, [r4, #0]
 8001ab4:	0751      	lsls	r1, r2, #29
 8001ab6:	d46b      	bmi.n	8001b90 <HAL_RCC_ClockConfig+0x110>
 8001ab8:	0713      	lsls	r3, r2, #28
 8001aba:	d507      	bpl.n	8001acc <HAL_RCC_ClockConfig+0x4c>
 8001abc:	4a39      	ldr	r2, [pc, #228]	; (8001ba4 <HAL_RCC_ClockConfig+0x124>)
 8001abe:	6921      	ldr	r1, [r4, #16]
 8001ac0:	6893      	ldr	r3, [r2, #8]
 8001ac2:	f423 4360 	bic.w	r3, r3, #57344	; 0xe000
 8001ac6:	ea43 03c1 	orr.w	r3, r3, r1, lsl #3
 8001aca:	6093      	str	r3, [r2, #8]
 8001acc:	f7ff ffaa 	bl	8001a24 <HAL_RCC_GetSysClockFreq>
 8001ad0:	4b34      	ldr	r3, [pc, #208]	; (8001ba4 <HAL_RCC_ClockConfig+0x124>)
 8001ad2:	4a35      	ldr	r2, [pc, #212]	; (8001ba8 <HAL_RCC_ClockConfig+0x128>)
 8001ad4:	689b      	ldr	r3, [r3, #8]
 8001ad6:	f3c3 1303 	ubfx	r3, r3, #4, #4
 8001ada:	5cd3      	ldrb	r3, [r2, r3]
 8001adc:	40d8      	lsrs	r0, r3
 8001ade:	4b33      	ldr	r3, [pc, #204]	; (8001bac <HAL_RCC_ClockConfig+0x12c>)
 8001ae0:	6018      	str	r0, [r3, #0]
 8001ae2:	4b33      	ldr	r3, [pc, #204]	; (8001bb0 <HAL_RCC_ClockConfig+0x130>)
 8001ae4:	6818      	ldr	r0, [r3, #0]
 8001ae6:	f7fe ff0f 	bl	8000908 <HAL_InitTick>
 8001aea:	2000      	movs	r0, #0
 8001aec:	e7ce      	b.n	8001a8c <HAL_RCC_ClockConfig+0xc>
 8001aee:	b2ca      	uxtb	r2, r1
 8001af0:	701a      	strb	r2, [r3, #0]
 8001af2:	681b      	ldr	r3, [r3, #0]
 8001af4:	f003 0307 	and.w	r3, r3, #7
 8001af8:	428b      	cmp	r3, r1
 8001afa:	d1c6      	bne.n	8001a8a <HAL_RCC_ClockConfig+0xa>
 8001afc:	e7ce      	b.n	8001a9c <HAL_RCC_ClockConfig+0x1c>
 8001afe:	4b29      	ldr	r3, [pc, #164]	; (8001ba4 <HAL_RCC_ClockConfig+0x124>)
 8001b00:	f011 0f04 	tst.w	r1, #4
 8001b04:	bf1e      	ittt	ne
 8001b06:	689a      	ldrne	r2, [r3, #8]
 8001b08:	f442 52e0 	orrne.w	r2, r2, #7168	; 0x1c00
 8001b0c:	609a      	strne	r2, [r3, #8]
 8001b0e:	070e      	lsls	r6, r1, #28
 8001b10:	bf42      	ittt	mi
 8001b12:	689a      	ldrmi	r2, [r3, #8]
 8001b14:	f442 4260 	orrmi.w	r2, r2, #57344	; 0xe000
 8001b18:	609a      	strmi	r2, [r3, #8]
 8001b1a:	689a      	ldr	r2, [r3, #8]
 8001b1c:	68a0      	ldr	r0, [r4, #8]
 8001b1e:	f022 02f0 	bic.w	r2, r2, #240	; 0xf0
 8001b22:	4302      	orrs	r2, r0
 8001b24:	609a      	str	r2, [r3, #8]
 8001b26:	e7bc      	b.n	8001aa2 <HAL_RCC_ClockConfig+0x22>
 8001b28:	6862      	ldr	r2, [r4, #4]
 8001b2a:	4b1e      	ldr	r3, [pc, #120]	; (8001ba4 <HAL_RCC_ClockConfig+0x124>)
 8001b2c:	2a01      	cmp	r2, #1
 8001b2e:	d11c      	bne.n	8001b6a <HAL_RCC_ClockConfig+0xea>
 8001b30:	681b      	ldr	r3, [r3, #0]
 8001b32:	f413 3f00 	tst.w	r3, #131072	; 0x20000
 8001b36:	d0a8      	beq.n	8001a8a <HAL_RCC_ClockConfig+0xa>
 8001b38:	4e1a      	ldr	r6, [pc, #104]	; (8001ba4 <HAL_RCC_ClockConfig+0x124>)
 8001b3a:	68b3      	ldr	r3, [r6, #8]
 8001b3c:	f023 0303 	bic.w	r3, r3, #3
 8001b40:	4313      	orrs	r3, r2
 8001b42:	60b3      	str	r3, [r6, #8]
 8001b44:	f7fe ff2a 	bl	800099c <HAL_GetTick>
 8001b48:	f241 3888 	movw	r8, #5000	; 0x1388
 8001b4c:	4607      	mov	r7, r0
 8001b4e:	68b3      	ldr	r3, [r6, #8]
 8001b50:	6862      	ldr	r2, [r4, #4]
 8001b52:	f003 030c 	and.w	r3, r3, #12
 8001b56:	ebb3 0f82 	cmp.w	r3, r2, lsl #2
 8001b5a:	d0a4      	beq.n	8001aa6 <HAL_RCC_ClockConfig+0x26>
 8001b5c:	f7fe ff1e 	bl	800099c <HAL_GetTick>
 8001b60:	1bc0      	subs	r0, r0, r7
 8001b62:	4540      	cmp	r0, r8
 8001b64:	d9f3      	bls.n	8001b4e <HAL_RCC_ClockConfig+0xce>
 8001b66:	2003      	movs	r0, #3
 8001b68:	e790      	b.n	8001a8c <HAL_RCC_ClockConfig+0xc>
 8001b6a:	1e91      	subs	r1, r2, #2
 8001b6c:	2901      	cmp	r1, #1
 8001b6e:	681b      	ldr	r3, [r3, #0]
 8001b70:	d802      	bhi.n	8001b78 <HAL_RCC_ClockConfig+0xf8>
 8001b72:	f013 7f00 	tst.w	r3, #33554432	; 0x2000000
 8001b76:	e7de      	b.n	8001b36 <HAL_RCC_ClockConfig+0xb6>
 8001b78:	f013 0f02 	tst.w	r3, #2
 8001b7c:	e7db      	b.n	8001b36 <HAL_RCC_ClockConfig+0xb6>
 8001b7e:	b2ea      	uxtb	r2, r5
 8001b80:	701a      	strb	r2, [r3, #0]
 8001b82:	681b      	ldr	r3, [r3, #0]
 8001b84:	f003 0307 	and.w	r3, r3, #7
 8001b88:	42ab      	cmp	r3, r5
 8001b8a:	f47f af7e 	bne.w	8001a8a <HAL_RCC_ClockConfig+0xa>
 8001b8e:	e790      	b.n	8001ab2 <HAL_RCC_ClockConfig+0x32>
 8001b90:	4904      	ldr	r1, [pc, #16]	; (8001ba4 <HAL_RCC_ClockConfig+0x124>)
 8001b92:	68e0      	ldr	r0, [r4, #12]
 8001b94:	688b      	ldr	r3, [r1, #8]
 8001b96:	f423 53e0 	bic.w	r3, r3, #7168	; 0x1c00
 8001b9a:	4303      	orrs	r3, r0
 8001b9c:	608b      	str	r3, [r1, #8]
 8001b9e:	e78b      	b.n	8001ab8 <HAL_RCC_ClockConfig+0x38>
 8001ba0:	40023c00 	.word	0x40023c00
 8001ba4:	40023800 	.word	0x40023800
 8001ba8:	080044d4 	.word	0x080044d4
 8001bac:	20000000 	.word	0x20000000
 8001bb0:	20000008 	.word	0x20000008

08001bb4 <HAL_RCC_GetHCLKFreq>:
 8001bb4:	4b01      	ldr	r3, [pc, #4]	; (8001bbc <HAL_RCC_GetHCLKFreq+0x8>)
 8001bb6:	6818      	ldr	r0, [r3, #0]
 8001bb8:	4770      	bx	lr
 8001bba:	bf00      	nop
 8001bbc:	20000000 	.word	0x20000000

08001bc0 <HAL_RCC_GetPCLK1Freq>:
 8001bc0:	4b04      	ldr	r3, [pc, #16]	; (8001bd4 <HAL_RCC_GetPCLK1Freq+0x14>)
 8001bc2:	4a05      	ldr	r2, [pc, #20]	; (8001bd8 <HAL_RCC_GetPCLK1Freq+0x18>)
 8001bc4:	689b      	ldr	r3, [r3, #8]
 8001bc6:	f3c3 2382 	ubfx	r3, r3, #10, #3
 8001bca:	5cd3      	ldrb	r3, [r2, r3]
 8001bcc:	4a03      	ldr	r2, [pc, #12]	; (8001bdc <HAL_RCC_GetPCLK1Freq+0x1c>)
 8001bce:	6810      	ldr	r0, [r2, #0]
 8001bd0:	40d8      	lsrs	r0, r3
 8001bd2:	4770      	bx	lr
 8001bd4:	40023800 	.word	0x40023800
 8001bd8:	080044e4 	.word	0x080044e4
 8001bdc:	20000000 	.word	0x20000000

08001be0 <HAL_RCC_GetPCLK2Freq>:
 8001be0:	4b04      	ldr	r3, [pc, #16]	; (8001bf4 <HAL_RCC_GetPCLK2Freq+0x14>)
 8001be2:	4a05      	ldr	r2, [pc, #20]	; (8001bf8 <HAL_RCC_GetPCLK2Freq+0x18>)
 8001be4:	689b      	ldr	r3, [r3, #8]
 8001be6:	f3c3 3342 	ubfx	r3, r3, #13, #3
 8001bea:	5cd3      	ldrb	r3, [r2, r3]
 8001bec:	4a03      	ldr	r2, [pc, #12]	; (8001bfc <HAL_RCC_GetPCLK2Freq+0x1c>)
 8001bee:	6810      	ldr	r0, [r2, #0]
 8001bf0:	40d8      	lsrs	r0, r3
 8001bf2:	4770      	bx	lr
 8001bf4:	40023800 	.word	0x40023800
 8001bf8:	080044e4 	.word	0x080044e4
 8001bfc:	20000000 	.word	0x20000000

08001c00 <UART_SetConfig>:
 8001c00:	6802      	ldr	r2, [r0, #0]
 8001c02:	68c1      	ldr	r1, [r0, #12]
 8001c04:	6913      	ldr	r3, [r2, #16]
 8001c06:	f423 5340 	bic.w	r3, r3, #12288	; 0x3000
 8001c0a:	430b      	orrs	r3, r1
 8001c0c:	b570      	push	{r4, r5, r6, lr}
 8001c0e:	6113      	str	r3, [r2, #16]
 8001c10:	4605      	mov	r5, r0
 8001c12:	6883      	ldr	r3, [r0, #8]
 8001c14:	6900      	ldr	r0, [r0, #16]
 8001c16:	68d1      	ldr	r1, [r2, #12]
 8001c18:	4303      	orrs	r3, r0
 8001c1a:	6968      	ldr	r0, [r5, #20]
 8001c1c:	4303      	orrs	r3, r0
 8001c1e:	69e8      	ldr	r0, [r5, #28]
 8001c20:	f421 4116 	bic.w	r1, r1, #38400	; 0x9600
 8001c24:	f021 010c 	bic.w	r1, r1, #12
 8001c28:	4303      	orrs	r3, r0
 8001c2a:	430b      	orrs	r3, r1
 8001c2c:	60d3      	str	r3, [r2, #12]
 8001c2e:	6953      	ldr	r3, [r2, #20]
 8001c30:	69a9      	ldr	r1, [r5, #24]
 8001c32:	f423 7340 	bic.w	r3, r3, #768	; 0x300
 8001c36:	430b      	orrs	r3, r1
 8001c38:	6153      	str	r3, [r2, #20]
 8001c3a:	4b1f      	ldr	r3, [pc, #124]	; (8001cb8 <UART_SetConfig+0xb8>)
 8001c3c:	429a      	cmp	r2, r3
 8001c3e:	d003      	beq.n	8001c48 <UART_SetConfig+0x48>
 8001c40:	f503 6380 	add.w	r3, r3, #1024	; 0x400
 8001c44:	429a      	cmp	r2, r3
 8001c46:	d123      	bne.n	8001c90 <UART_SetConfig+0x90>
 8001c48:	f7ff ffca 	bl	8001be0 <HAL_RCC_GetPCLK2Freq>
 8001c4c:	69eb      	ldr	r3, [r5, #28]
 8001c4e:	2119      	movs	r1, #25
 8001c50:	f5b3 4f00 	cmp.w	r3, #32768	; 0x8000
 8001c54:	e9d5 4600 	ldrd	r4, r6, [r5]
 8001c58:	fba0 0101 	umull	r0, r1, r0, r1
 8001c5c:	d11b      	bne.n	8001c96 <UART_SetConfig+0x96>
 8001c5e:	19b2      	adds	r2, r6, r6
 8001c60:	f04f 0300 	mov.w	r3, #0
 8001c64:	415b      	adcs	r3, r3
 8001c66:	f7fe fb03 	bl	8000270 <__aeabi_uldivmod>
 8001c6a:	2264      	movs	r2, #100	; 0x64
 8001c6c:	fbb0 f1f2 	udiv	r1, r0, r2
 8001c70:	fb02 0311 	mls	r3, r2, r1, r0
 8001c74:	00db      	lsls	r3, r3, #3
 8001c76:	3332      	adds	r3, #50	; 0x32
 8001c78:	fbb3 f3f2 	udiv	r3, r3, r2
 8001c7c:	f003 0207 	and.w	r2, r3, #7
 8001c80:	005b      	lsls	r3, r3, #1
 8001c82:	eb02 1201 	add.w	r2, r2, r1, lsl #4
 8001c86:	f403 73f8 	and.w	r3, r3, #496	; 0x1f0
 8001c8a:	4413      	add	r3, r2
 8001c8c:	60a3      	str	r3, [r4, #8]
 8001c8e:	bd70      	pop	{r4, r5, r6, pc}
 8001c90:	f7ff ff96 	bl	8001bc0 <HAL_RCC_GetPCLK1Freq>
 8001c94:	e7da      	b.n	8001c4c <UART_SetConfig+0x4c>
 8001c96:	00b2      	lsls	r2, r6, #2
 8001c98:	0fb3      	lsrs	r3, r6, #30
 8001c9a:	f7fe fae9 	bl	8000270 <__aeabi_uldivmod>
 8001c9e:	2264      	movs	r2, #100	; 0x64
 8001ca0:	fbb0 f1f2 	udiv	r1, r0, r2
 8001ca4:	fb02 0311 	mls	r3, r2, r1, r0
 8001ca8:	011b      	lsls	r3, r3, #4
 8001caa:	3332      	adds	r3, #50	; 0x32
 8001cac:	fbb3 f3f2 	udiv	r3, r3, r2
 8001cb0:	eb03 1301 	add.w	r3, r3, r1, lsl #4
 8001cb4:	e7ea      	b.n	8001c8c <UART_SetConfig+0x8c>
 8001cb6:	bf00      	nop
 8001cb8:	40011000 	.word	0x40011000

08001cbc <HAL_UART_Init>:
 8001cbc:	b510      	push	{r4, lr}
 8001cbe:	4604      	mov	r4, r0
 8001cc0:	b348      	cbz	r0, 8001d16 <HAL_UART_Init+0x5a>
 8001cc2:	f890 3041 	ldrb.w	r3, [r0, #65]	; 0x41
 8001cc6:	f003 02ff 	and.w	r2, r3, #255	; 0xff
 8001cca:	b91b      	cbnz	r3, 8001cd4 <HAL_UART_Init+0x18>
 8001ccc:	f880 2040 	strb.w	r2, [r0, #64]	; 0x40
 8001cd0:	f7fe fd34 	bl	800073c <HAL_UART_MspInit>
 8001cd4:	6822      	ldr	r2, [r4, #0]
 8001cd6:	2324      	movs	r3, #36	; 0x24
 8001cd8:	f884 3041 	strb.w	r3, [r4, #65]	; 0x41
 8001cdc:	68d3      	ldr	r3, [r2, #12]
 8001cde:	f423 5300 	bic.w	r3, r3, #8192	; 0x2000
 8001ce2:	60d3      	str	r3, [r2, #12]
 8001ce4:	4620      	mov	r0, r4
 8001ce6:	f7ff ff8b 	bl	8001c00 <UART_SetConfig>
 8001cea:	6823      	ldr	r3, [r4, #0]
 8001cec:	691a      	ldr	r2, [r3, #16]
 8001cee:	f422 4290 	bic.w	r2, r2, #18432	; 0x4800
 8001cf2:	611a      	str	r2, [r3, #16]
 8001cf4:	695a      	ldr	r2, [r3, #20]
 8001cf6:	f022 022a 	bic.w	r2, r2, #42	; 0x2a
 8001cfa:	615a      	str	r2, [r3, #20]
 8001cfc:	68da      	ldr	r2, [r3, #12]
 8001cfe:	f442 5200 	orr.w	r2, r2, #8192	; 0x2000
 8001d02:	60da      	str	r2, [r3, #12]
 8001d04:	2000      	movs	r0, #0
 8001d06:	2320      	movs	r3, #32
 8001d08:	6460      	str	r0, [r4, #68]	; 0x44
 8001d0a:	f884 3041 	strb.w	r3, [r4, #65]	; 0x41
 8001d0e:	f884 3042 	strb.w	r3, [r4, #66]	; 0x42
 8001d12:	6360      	str	r0, [r4, #52]	; 0x34
 8001d14:	bd10      	pop	{r4, pc}
 8001d16:	2001      	movs	r0, #1
 8001d18:	e7fc      	b.n	8001d14 <HAL_UART_Init+0x58>

08001d1a <USB_CoreReset>:
 8001d1a:	b082      	sub	sp, #8
 8001d1c:	2300      	movs	r3, #0
 8001d1e:	9301      	str	r3, [sp, #4]
 8001d20:	9b01      	ldr	r3, [sp, #4]
 8001d22:	3301      	adds	r3, #1
 8001d24:	9301      	str	r3, [sp, #4]
 8001d26:	9b01      	ldr	r3, [sp, #4]
 8001d28:	f1b3 6f70 	cmp.w	r3, #251658240	; 0xf000000
 8001d2c:	d816      	bhi.n	8001d5c <USB_CoreReset+0x42>
 8001d2e:	6903      	ldr	r3, [r0, #16]
 8001d30:	2b00      	cmp	r3, #0
 8001d32:	daf5      	bge.n	8001d20 <USB_CoreReset+0x6>
 8001d34:	2300      	movs	r3, #0
 8001d36:	9301      	str	r3, [sp, #4]
 8001d38:	6903      	ldr	r3, [r0, #16]
 8001d3a:	f043 0301 	orr.w	r3, r3, #1
 8001d3e:	6103      	str	r3, [r0, #16]
 8001d40:	9b01      	ldr	r3, [sp, #4]
 8001d42:	3301      	adds	r3, #1
 8001d44:	9301      	str	r3, [sp, #4]
 8001d46:	9b01      	ldr	r3, [sp, #4]
 8001d48:	f1b3 6f70 	cmp.w	r3, #251658240	; 0xf000000
 8001d4c:	d806      	bhi.n	8001d5c <USB_CoreReset+0x42>
 8001d4e:	6903      	ldr	r3, [r0, #16]
 8001d50:	f013 0301 	ands.w	r3, r3, #1
 8001d54:	d1f4      	bne.n	8001d40 <USB_CoreReset+0x26>
 8001d56:	4618      	mov	r0, r3
 8001d58:	b002      	add	sp, #8
 8001d5a:	4770      	bx	lr
 8001d5c:	2003      	movs	r0, #3
 8001d5e:	e7fb      	b.n	8001d58 <USB_CoreReset+0x3e>

08001d60 <USB_CoreInit>:
 8001d60:	b084      	sub	sp, #16
 8001d62:	b538      	push	{r3, r4, r5, lr}
 8001d64:	ad05      	add	r5, sp, #20
 8001d66:	e885 000e 	stmia.w	r5, {r1, r2, r3}
 8001d6a:	f89d 3019 	ldrb.w	r3, [sp, #25]
 8001d6e:	2b01      	cmp	r3, #1
 8001d70:	4604      	mov	r4, r0
 8001d72:	d127      	bne.n	8001dc4 <USB_CoreInit+0x64>
 8001d74:	6b83      	ldr	r3, [r0, #56]	; 0x38
 8001d76:	f423 3380 	bic.w	r3, r3, #65536	; 0x10000
 8001d7a:	6383      	str	r3, [r0, #56]	; 0x38
 8001d7c:	68c3      	ldr	r3, [r0, #12]
 8001d7e:	f423 0384 	bic.w	r3, r3, #4325376	; 0x420000
 8001d82:	f023 0340 	bic.w	r3, r3, #64	; 0x40
 8001d86:	60c3      	str	r3, [r0, #12]
 8001d88:	68c3      	ldr	r3, [r0, #12]
 8001d8a:	f423 1340 	bic.w	r3, r3, #3145728	; 0x300000
 8001d8e:	60c3      	str	r3, [r0, #12]
 8001d90:	f89d 3020 	ldrb.w	r3, [sp, #32]
 8001d94:	2b01      	cmp	r3, #1
 8001d96:	bf02      	ittt	eq
 8001d98:	68c3      	ldreq	r3, [r0, #12]
 8001d9a:	f443 1380 	orreq.w	r3, r3, #1048576	; 0x100000
 8001d9e:	60c3      	streq	r3, [r0, #12]
 8001da0:	f7ff ffbb 	bl	8001d1a <USB_CoreReset>
 8001da4:	f89d 3016 	ldrb.w	r3, [sp, #22]
 8001da8:	2b01      	cmp	r3, #1
 8001daa:	d107      	bne.n	8001dbc <USB_CoreInit+0x5c>
 8001dac:	68a3      	ldr	r3, [r4, #8]
 8001dae:	f043 0306 	orr.w	r3, r3, #6
 8001db2:	60a3      	str	r3, [r4, #8]
 8001db4:	68a3      	ldr	r3, [r4, #8]
 8001db6:	f043 0320 	orr.w	r3, r3, #32
 8001dba:	60a3      	str	r3, [r4, #8]
 8001dbc:	e8bd 4038 	ldmia.w	sp!, {r3, r4, r5, lr}
 8001dc0:	b004      	add	sp, #16
 8001dc2:	4770      	bx	lr
 8001dc4:	68c3      	ldr	r3, [r0, #12]
 8001dc6:	f043 0340 	orr.w	r3, r3, #64	; 0x40
 8001dca:	60c3      	str	r3, [r0, #12]
 8001dcc:	f7ff ffa5 	bl	8001d1a <USB_CoreReset>
 8001dd0:	f89d 301d 	ldrb.w	r3, [sp, #29]
 8001dd4:	b923      	cbnz	r3, 8001de0 <USB_CoreInit+0x80>
 8001dd6:	6ba3      	ldr	r3, [r4, #56]	; 0x38
 8001dd8:	f443 3380 	orr.w	r3, r3, #65536	; 0x10000
 8001ddc:	63a3      	str	r3, [r4, #56]	; 0x38
 8001dde:	e7e1      	b.n	8001da4 <USB_CoreInit+0x44>
 8001de0:	6ba3      	ldr	r3, [r4, #56]	; 0x38
 8001de2:	f423 3380 	bic.w	r3, r3, #65536	; 0x10000
 8001de6:	e7f9      	b.n	8001ddc <USB_CoreInit+0x7c>

08001de8 <USB_SetTurnaroundTime>:
 8001de8:	2a02      	cmp	r2, #2
 8001dea:	d14a      	bne.n	8001e82 <USB_SetTurnaroundTime+0x9a>
 8001dec:	4b27      	ldr	r3, [pc, #156]	; (8001e8c <USB_SetTurnaroundTime+0xa4>)
 8001dee:	4a28      	ldr	r2, [pc, #160]	; (8001e90 <USB_SetTurnaroundTime+0xa8>)
 8001df0:	440b      	add	r3, r1
 8001df2:	4293      	cmp	r3, r2
 8001df4:	d939      	bls.n	8001e6a <USB_SetTurnaroundTime+0x82>
 8001df6:	4b27      	ldr	r3, [pc, #156]	; (8001e94 <USB_SetTurnaroundTime+0xac>)
 8001df8:	4a27      	ldr	r2, [pc, #156]	; (8001e98 <USB_SetTurnaroundTime+0xb0>)
 8001dfa:	440b      	add	r3, r1
 8001dfc:	4293      	cmp	r3, r2
 8001dfe:	d936      	bls.n	8001e6e <USB_SetTurnaroundTime+0x86>
 8001e00:	4a26      	ldr	r2, [pc, #152]	; (8001e9c <USB_SetTurnaroundTime+0xb4>)
 8001e02:	f5a1 0374 	sub.w	r3, r1, #15990784	; 0xf40000
 8001e06:	f5a3 5310 	sub.w	r3, r3, #9216	; 0x2400
 8001e0a:	4293      	cmp	r3, r2
 8001e0c:	d931      	bls.n	8001e72 <USB_SetTurnaroundTime+0x8a>
 8001e0e:	4a24      	ldr	r2, [pc, #144]	; (8001ea0 <USB_SetTurnaroundTime+0xb8>)
 8001e10:	f1a1 7383 	sub.w	r3, r1, #17170432	; 0x1060000
 8001e14:	f5a3 43e7 	sub.w	r3, r3, #29568	; 0x7380
 8001e18:	4293      	cmp	r3, r2
 8001e1a:	d32c      	bcc.n	8001e76 <USB_SetTurnaroundTime+0x8e>
 8001e1c:	4b21      	ldr	r3, [pc, #132]	; (8001ea4 <USB_SetTurnaroundTime+0xbc>)
 8001e1e:	4a22      	ldr	r2, [pc, #136]	; (8001ea8 <USB_SetTurnaroundTime+0xc0>)
 8001e20:	440b      	add	r3, r1
 8001e22:	4293      	cmp	r3, r2
 8001e24:	d929      	bls.n	8001e7a <USB_SetTurnaroundTime+0x92>
 8001e26:	4b21      	ldr	r3, [pc, #132]	; (8001eac <USB_SetTurnaroundTime+0xc4>)
 8001e28:	4a21      	ldr	r2, [pc, #132]	; (8001eb0 <USB_SetTurnaroundTime+0xc8>)
 8001e2a:	440b      	add	r3, r1
 8001e2c:	4293      	cmp	r3, r2
 8001e2e:	d326      	bcc.n	8001e7e <USB_SetTurnaroundTime+0x96>
 8001e30:	4b20      	ldr	r3, [pc, #128]	; (8001eb4 <USB_SetTurnaroundTime+0xcc>)
 8001e32:	4a21      	ldr	r2, [pc, #132]	; (8001eb8 <USB_SetTurnaroundTime+0xd0>)
 8001e34:	440b      	add	r3, r1
 8001e36:	4293      	cmp	r3, r2
 8001e38:	d323      	bcc.n	8001e82 <USB_SetTurnaroundTime+0x9a>
 8001e3a:	4a20      	ldr	r2, [pc, #128]	; (8001ebc <USB_SetTurnaroundTime+0xd4>)
 8001e3c:	f1a1 73b7 	sub.w	r3, r1, #23986176	; 0x16e0000
 8001e40:	f5a3 5358 	sub.w	r3, r3, #13824	; 0x3600
 8001e44:	4293      	cmp	r3, r2
 8001e46:	d31e      	bcc.n	8001e86 <USB_SetTurnaroundTime+0x9e>
 8001e48:	4b1d      	ldr	r3, [pc, #116]	; (8001ec0 <USB_SetTurnaroundTime+0xd8>)
 8001e4a:	4a1e      	ldr	r2, [pc, #120]	; (8001ec4 <USB_SetTurnaroundTime+0xdc>)
 8001e4c:	440b      	add	r3, r1
 8001e4e:	4293      	cmp	r3, r2
 8001e50:	bf34      	ite	cc
 8001e52:	2307      	movcc	r3, #7
 8001e54:	2306      	movcs	r3, #6
 8001e56:	68c2      	ldr	r2, [r0, #12]
 8001e58:	f422 5270 	bic.w	r2, r2, #15360	; 0x3c00
 8001e5c:	60c2      	str	r2, [r0, #12]
 8001e5e:	68c2      	ldr	r2, [r0, #12]
 8001e60:	ea42 2383 	orr.w	r3, r2, r3, lsl #10
 8001e64:	60c3      	str	r3, [r0, #12]
 8001e66:	2000      	movs	r0, #0
 8001e68:	4770      	bx	lr
 8001e6a:	230f      	movs	r3, #15
 8001e6c:	e7f3      	b.n	8001e56 <USB_SetTurnaroundTime+0x6e>
 8001e6e:	230e      	movs	r3, #14
 8001e70:	e7f1      	b.n	8001e56 <USB_SetTurnaroundTime+0x6e>
 8001e72:	230d      	movs	r3, #13
 8001e74:	e7ef      	b.n	8001e56 <USB_SetTurnaroundTime+0x6e>
 8001e76:	230c      	movs	r3, #12
 8001e78:	e7ed      	b.n	8001e56 <USB_SetTurnaroundTime+0x6e>
 8001e7a:	230b      	movs	r3, #11
 8001e7c:	e7eb      	b.n	8001e56 <USB_SetTurnaroundTime+0x6e>
 8001e7e:	230a      	movs	r3, #10
 8001e80:	e7e9      	b.n	8001e56 <USB_SetTurnaroundTime+0x6e>
 8001e82:	2309      	movs	r3, #9
 8001e84:	e7e7      	b.n	8001e56 <USB_SetTurnaroundTime+0x6e>
 8001e86:	2308      	movs	r3, #8
 8001e88:	e7e5      	b.n	8001e56 <USB_SetTurnaroundTime+0x6e>
 8001e8a:	bf00      	nop
 8001e8c:	ff275340 	.word	0xff275340
 8001e90:	000c34ff 	.word	0x000c34ff
 8001e94:	ff1b1e40 	.word	0xff1b1e40
 8001e98:	000f423f 	.word	0x000f423f
 8001e9c:	00124f7f 	.word	0x00124f7f
 8001ea0:	0013d620 	.word	0x0013d620
 8001ea4:	fee5b660 	.word	0xfee5b660
 8001ea8:	0016e35f 	.word	0x0016e35f
 8001eac:	feced300 	.word	0xfeced300
 8001eb0:	001b7740 	.word	0x001b7740
 8001eb4:	feb35bc0 	.word	0xfeb35bc0
 8001eb8:	002191c0 	.word	0x002191c0
 8001ebc:	00387520 	.word	0x00387520
 8001ec0:	fe5954e0 	.word	0xfe5954e0
 8001ec4:	00419ce0 	.word	0x00419ce0

08001ec8 <USB_EnableGlobalInt>:
 8001ec8:	6883      	ldr	r3, [r0, #8]
 8001eca:	f043 0301 	orr.w	r3, r3, #1
 8001ece:	6083      	str	r3, [r0, #8]
 8001ed0:	2000      	movs	r0, #0
 8001ed2:	4770      	bx	lr

08001ed4 <USB_DisableGlobalInt>:
 8001ed4:	6883      	ldr	r3, [r0, #8]
 8001ed6:	f023 0301 	bic.w	r3, r3, #1
 8001eda:	6083      	str	r3, [r0, #8]
 8001edc:	2000      	movs	r0, #0
 8001ede:	4770      	bx	lr

08001ee0 <USB_SetCurrentMode>:
 8001ee0:	b538      	push	{r3, r4, r5, lr}
 8001ee2:	68c3      	ldr	r3, [r0, #12]
 8001ee4:	2901      	cmp	r1, #1
 8001ee6:	f023 43c0 	bic.w	r3, r3, #1610612736	; 0x60000000
 8001eea:	4605      	mov	r5, r0
 8001eec:	60c3      	str	r3, [r0, #12]
 8001eee:	d110      	bne.n	8001f12 <USB_SetCurrentMode+0x32>
 8001ef0:	68c3      	ldr	r3, [r0, #12]
 8001ef2:	f043 5300 	orr.w	r3, r3, #536870912	; 0x20000000
 8001ef6:	60c3      	str	r3, [r0, #12]
 8001ef8:	2400      	movs	r4, #0
 8001efa:	200a      	movs	r0, #10
 8001efc:	f7fe fd54 	bl	80009a8 <HAL_Delay>
 8001f00:	696b      	ldr	r3, [r5, #20]
 8001f02:	07d9      	lsls	r1, r3, #31
 8001f04:	f104 040a 	add.w	r4, r4, #10
 8001f08:	d415      	bmi.n	8001f36 <USB_SetCurrentMode+0x56>
 8001f0a:	2cc8      	cmp	r4, #200	; 0xc8
 8001f0c:	d1f5      	bne.n	8001efa <USB_SetCurrentMode+0x1a>
 8001f0e:	2001      	movs	r0, #1
 8001f10:	bd38      	pop	{r3, r4, r5, pc}
 8001f12:	2900      	cmp	r1, #0
 8001f14:	d1fb      	bne.n	8001f0e <USB_SetCurrentMode+0x2e>
 8001f16:	68c3      	ldr	r3, [r0, #12]
 8001f18:	f043 4380 	orr.w	r3, r3, #1073741824	; 0x40000000
 8001f1c:	60c3      	str	r3, [r0, #12]
 8001f1e:	460c      	mov	r4, r1
 8001f20:	200a      	movs	r0, #10
 8001f22:	f7fe fd41 	bl	80009a8 <HAL_Delay>
 8001f26:	696b      	ldr	r3, [r5, #20]
 8001f28:	07da      	lsls	r2, r3, #31
 8001f2a:	f104 040a 	add.w	r4, r4, #10
 8001f2e:	d502      	bpl.n	8001f36 <USB_SetCurrentMode+0x56>
 8001f30:	2cc8      	cmp	r4, #200	; 0xc8
 8001f32:	d1f5      	bne.n	8001f20 <USB_SetCurrentMode+0x40>
 8001f34:	e7eb      	b.n	8001f0e <USB_SetCurrentMode+0x2e>
 8001f36:	f1a4 03c8 	sub.w	r3, r4, #200	; 0xc8
 8001f3a:	4258      	negs	r0, r3
 8001f3c:	4158      	adcs	r0, r3
 8001f3e:	e7e7      	b.n	8001f10 <USB_SetCurrentMode+0x30>

08001f40 <USB_FlushTxFifo>:
 8001f40:	b082      	sub	sp, #8
 8001f42:	2300      	movs	r3, #0
 8001f44:	9301      	str	r3, [sp, #4]
 8001f46:	9b01      	ldr	r3, [sp, #4]
 8001f48:	3301      	adds	r3, #1
 8001f4a:	9301      	str	r3, [sp, #4]
 8001f4c:	9b01      	ldr	r3, [sp, #4]
 8001f4e:	f1b3 6f70 	cmp.w	r3, #251658240	; 0xf000000
 8001f52:	d816      	bhi.n	8001f82 <USB_FlushTxFifo+0x42>
 8001f54:	6903      	ldr	r3, [r0, #16]
 8001f56:	2b00      	cmp	r3, #0
 8001f58:	daf5      	bge.n	8001f46 <USB_FlushTxFifo+0x6>
 8001f5a:	0189      	lsls	r1, r1, #6
 8001f5c:	2300      	movs	r3, #0
 8001f5e:	f041 0120 	orr.w	r1, r1, #32
 8001f62:	9301      	str	r3, [sp, #4]
 8001f64:	6101      	str	r1, [r0, #16]
 8001f66:	9b01      	ldr	r3, [sp, #4]
 8001f68:	3301      	adds	r3, #1
 8001f6a:	9301      	str	r3, [sp, #4]
 8001f6c:	9b01      	ldr	r3, [sp, #4]
 8001f6e:	f1b3 6f70 	cmp.w	r3, #251658240	; 0xf000000
 8001f72:	d806      	bhi.n	8001f82 <USB_FlushTxFifo+0x42>
 8001f74:	6903      	ldr	r3, [r0, #16]
 8001f76:	f013 0320 	ands.w	r3, r3, #32
 8001f7a:	d1f4      	bne.n	8001f66 <USB_FlushTxFifo+0x26>
 8001f7c:	4618      	mov	r0, r3
 8001f7e:	b002      	add	sp, #8
 8001f80:	4770      	bx	lr
 8001f82:	2003      	movs	r0, #3
 8001f84:	e7fb      	b.n	8001f7e <USB_FlushTxFifo+0x3e>

08001f86 <USB_FlushRxFifo>:
 8001f86:	b082      	sub	sp, #8
 8001f88:	2300      	movs	r3, #0
 8001f8a:	9301      	str	r3, [sp, #4]
 8001f8c:	9b01      	ldr	r3, [sp, #4]
 8001f8e:	3301      	adds	r3, #1
 8001f90:	9301      	str	r3, [sp, #4]
 8001f92:	9b01      	ldr	r3, [sp, #4]
 8001f94:	f1b3 6f70 	cmp.w	r3, #251658240	; 0xf000000
 8001f98:	d814      	bhi.n	8001fc4 <USB_FlushRxFifo+0x3e>
 8001f9a:	6903      	ldr	r3, [r0, #16]
 8001f9c:	2b00      	cmp	r3, #0
 8001f9e:	daf5      	bge.n	8001f8c <USB_FlushRxFifo+0x6>
 8001fa0:	2300      	movs	r3, #0
 8001fa2:	9301      	str	r3, [sp, #4]
 8001fa4:	2310      	movs	r3, #16
 8001fa6:	6103      	str	r3, [r0, #16]
 8001fa8:	9b01      	ldr	r3, [sp, #4]
 8001faa:	3301      	adds	r3, #1
 8001fac:	9301      	str	r3, [sp, #4]
 8001fae:	9b01      	ldr	r3, [sp, #4]
 8001fb0:	f1b3 6f70 	cmp.w	r3, #251658240	; 0xf000000
 8001fb4:	d806      	bhi.n	8001fc4 <USB_FlushRxFifo+0x3e>
 8001fb6:	6903      	ldr	r3, [r0, #16]
 8001fb8:	f013 0310 	ands.w	r3, r3, #16
 8001fbc:	d1f4      	bne.n	8001fa8 <USB_FlushRxFifo+0x22>
 8001fbe:	4618      	mov	r0, r3
 8001fc0:	b002      	add	sp, #8
 8001fc2:	4770      	bx	lr
 8001fc4:	2003      	movs	r0, #3
 8001fc6:	e7fb      	b.n	8001fc0 <USB_FlushRxFifo+0x3a>

08001fc8 <USB_SetDevSpeed>:
 8001fc8:	f8d0 3800 	ldr.w	r3, [r0, #2048]	; 0x800
 8001fcc:	4319      	orrs	r1, r3
 8001fce:	f8c0 1800 	str.w	r1, [r0, #2048]	; 0x800
 8001fd2:	2000      	movs	r0, #0
 8001fd4:	4770      	bx	lr
	...

08001fd8 <USB_DevInit>:
 8001fd8:	b084      	sub	sp, #16
 8001fda:	e92d 43f8 	stmdb	sp!, {r3, r4, r5, r6, r7, r8, r9, lr}
 8001fde:	4604      	mov	r4, r0
 8001fe0:	a809      	add	r0, sp, #36	; 0x24
 8001fe2:	e880 000e 	stmia.w	r0, {r1, r2, r3}
 8001fe6:	2300      	movs	r3, #0
 8001fe8:	f89d 6024 	ldrb.w	r6, [sp, #36]	; 0x24
 8001fec:	f89d 502e 	ldrb.w	r5, [sp, #46]	; 0x2e
 8001ff0:	4619      	mov	r1, r3
 8001ff2:	f103 0240 	add.w	r2, r3, #64	; 0x40
 8001ff6:	eb04 0282 	add.w	r2, r4, r2, lsl #2
 8001ffa:	3301      	adds	r3, #1
 8001ffc:	2b0f      	cmp	r3, #15
 8001ffe:	6051      	str	r1, [r2, #4]
 8002000:	d1f7      	bne.n	8001ff2 <USB_DevInit+0x1a>
 8002002:	f504 6700 	add.w	r7, r4, #2048	; 0x800
 8002006:	2d00      	cmp	r5, #0
 8002008:	d16c      	bne.n	80020e4 <USB_DevInit+0x10c>
 800200a:	687b      	ldr	r3, [r7, #4]
 800200c:	f043 0302 	orr.w	r3, r3, #2
 8002010:	607b      	str	r3, [r7, #4]
 8002012:	6ba3      	ldr	r3, [r4, #56]	; 0x38
 8002014:	f443 1300 	orr.w	r3, r3, #2097152	; 0x200000
 8002018:	63a3      	str	r3, [r4, #56]	; 0x38
 800201a:	6ba3      	ldr	r3, [r4, #56]	; 0x38
 800201c:	f423 2300 	bic.w	r3, r3, #524288	; 0x80000
 8002020:	63a3      	str	r3, [r4, #56]	; 0x38
 8002022:	6ba3      	ldr	r3, [r4, #56]	; 0x38
 8002024:	f423 2380 	bic.w	r3, r3, #262144	; 0x40000
 8002028:	63a3      	str	r3, [r4, #56]	; 0x38
 800202a:	2300      	movs	r3, #0
 800202c:	f8c4 3e00 	str.w	r3, [r4, #3584]	; 0xe00
 8002030:	f89d 3029 	ldrb.w	r3, [sp, #41]	; 0x29
 8002034:	2b01      	cmp	r3, #1
 8002036:	d15f      	bne.n	80020f8 <USB_DevInit+0x120>
 8002038:	f89d 1027 	ldrb.w	r1, [sp, #39]	; 0x27
 800203c:	2900      	cmp	r1, #0
 800203e:	d159      	bne.n	80020f4 <USB_DevInit+0x11c>
 8002040:	4620      	mov	r0, r4
 8002042:	f7ff ffc1 	bl	8001fc8 <USB_SetDevSpeed>
 8002046:	2110      	movs	r1, #16
 8002048:	4620      	mov	r0, r4
 800204a:	f7ff ff79 	bl	8001f40 <USB_FlushTxFifo>
 800204e:	4602      	mov	r2, r0
 8002050:	4620      	mov	r0, r4
 8002052:	f7ff ff98 	bl	8001f86 <USB_FlushRxFifo>
 8002056:	4310      	orrs	r0, r2
 8002058:	b2c0      	uxtb	r0, r0
 800205a:	2300      	movs	r3, #0
 800205c:	3800      	subs	r0, #0
 800205e:	613b      	str	r3, [r7, #16]
 8002060:	bf18      	it	ne
 8002062:	2001      	movne	r0, #1
 8002064:	617b      	str	r3, [r7, #20]
 8002066:	f504 6210 	add.w	r2, r4, #2304	; 0x900
 800206a:	61fb      	str	r3, [r7, #28]
 800206c:	4619      	mov	r1, r3
 800206e:	f04f 4c90 	mov.w	ip, #1207959552	; 0x48000000
 8002072:	f04f 6e00 	mov.w	lr, #134217728	; 0x8000000
 8002076:	f64f 387f 	movw	r8, #64383	; 0xfb7f
 800207a:	429e      	cmp	r6, r3
 800207c:	d83e      	bhi.n	80020fc <USB_DevInit+0x124>
 800207e:	2200      	movs	r2, #0
 8002080:	f504 6330 	add.w	r3, r4, #2816	; 0xb00
 8002084:	4611      	mov	r1, r2
 8002086:	f04f 4c90 	mov.w	ip, #1207959552	; 0x48000000
 800208a:	f04f 6e00 	mov.w	lr, #134217728	; 0x8000000
 800208e:	f64f 387f 	movw	r8, #64383	; 0xfb7f
 8002092:	4296      	cmp	r6, r2
 8002094:	d845      	bhi.n	8002122 <USB_DevInit+0x14a>
 8002096:	693b      	ldr	r3, [r7, #16]
 8002098:	f423 7380 	bic.w	r3, r3, #256	; 0x100
 800209c:	613b      	str	r3, [r7, #16]
 800209e:	2300      	movs	r3, #0
 80020a0:	61a3      	str	r3, [r4, #24]
 80020a2:	f06f 4380 	mvn.w	r3, #1073741824	; 0x40000000
 80020a6:	6163      	str	r3, [r4, #20]
 80020a8:	f89d 3026 	ldrb.w	r3, [sp, #38]	; 0x26
 80020ac:	b91b      	cbnz	r3, 80020b6 <USB_DevInit+0xde>
 80020ae:	69a3      	ldr	r3, [r4, #24]
 80020b0:	f043 0310 	orr.w	r3, r3, #16
 80020b4:	61a3      	str	r3, [r4, #24]
 80020b6:	69a2      	ldr	r2, [r4, #24]
 80020b8:	4b23      	ldr	r3, [pc, #140]	; (8002148 <USB_DevInit+0x170>)
 80020ba:	4313      	orrs	r3, r2
 80020bc:	61a3      	str	r3, [r4, #24]
 80020be:	f89d 302a 	ldrb.w	r3, [sp, #42]	; 0x2a
 80020c2:	b11b      	cbz	r3, 80020cc <USB_DevInit+0xf4>
 80020c4:	69a3      	ldr	r3, [r4, #24]
 80020c6:	f043 0308 	orr.w	r3, r3, #8
 80020ca:	61a3      	str	r3, [r4, #24]
 80020cc:	2d01      	cmp	r5, #1
 80020ce:	bf01      	itttt	eq
 80020d0:	69a3      	ldreq	r3, [r4, #24]
 80020d2:	f043 4380 	orreq.w	r3, r3, #1073741824	; 0x40000000
 80020d6:	f043 0304 	orreq.w	r3, r3, #4
 80020da:	61a3      	streq	r3, [r4, #24]
 80020dc:	e8bd 43f8 	ldmia.w	sp!, {r3, r4, r5, r6, r7, r8, r9, lr}
 80020e0:	b004      	add	sp, #16
 80020e2:	4770      	bx	lr
 80020e4:	6ba3      	ldr	r3, [r4, #56]	; 0x38
 80020e6:	f423 1300 	bic.w	r3, r3, #2097152	; 0x200000
 80020ea:	63a3      	str	r3, [r4, #56]	; 0x38
 80020ec:	6ba3      	ldr	r3, [r4, #56]	; 0x38
 80020ee:	f443 2300 	orr.w	r3, r3, #524288	; 0x80000
 80020f2:	e799      	b.n	8002028 <USB_DevInit+0x50>
 80020f4:	4619      	mov	r1, r3
 80020f6:	e7a3      	b.n	8002040 <USB_DevInit+0x68>
 80020f8:	2103      	movs	r1, #3
 80020fa:	e7a1      	b.n	8002040 <USB_DevInit+0x68>
 80020fc:	f8d2 9000 	ldr.w	r9, [r2]
 8002100:	f1b9 0f00 	cmp.w	r9, #0
 8002104:	da0b      	bge.n	800211e <USB_DevInit+0x146>
 8002106:	b93b      	cbnz	r3, 8002118 <USB_DevInit+0x140>
 8002108:	f8c2 e000 	str.w	lr, [r2]
 800210c:	6111      	str	r1, [r2, #16]
 800210e:	3301      	adds	r3, #1
 8002110:	f8c2 8008 	str.w	r8, [r2, #8]
 8002114:	3220      	adds	r2, #32
 8002116:	e7b0      	b.n	800207a <USB_DevInit+0xa2>
 8002118:	f8c2 c000 	str.w	ip, [r2]
 800211c:	e7f6      	b.n	800210c <USB_DevInit+0x134>
 800211e:	6011      	str	r1, [r2, #0]
 8002120:	e7f4      	b.n	800210c <USB_DevInit+0x134>
 8002122:	f8d3 9000 	ldr.w	r9, [r3]
 8002126:	f1b9 0f00 	cmp.w	r9, #0
 800212a:	da0b      	bge.n	8002144 <USB_DevInit+0x16c>
 800212c:	b93a      	cbnz	r2, 800213e <USB_DevInit+0x166>
 800212e:	f8c3 e000 	str.w	lr, [r3]
 8002132:	6119      	str	r1, [r3, #16]
 8002134:	3201      	adds	r2, #1
 8002136:	f8c3 8008 	str.w	r8, [r3, #8]
 800213a:	3320      	adds	r3, #32
 800213c:	e7a9      	b.n	8002092 <USB_DevInit+0xba>
 800213e:	f8c3 c000 	str.w	ip, [r3]
 8002142:	e7f6      	b.n	8002132 <USB_DevInit+0x15a>
 8002144:	6019      	str	r1, [r3, #0]
 8002146:	e7f4      	b.n	8002132 <USB_DevInit+0x15a>
 8002148:	803c3800 	.word	0x803c3800

0800214c <USB_GetDevSpeed>:
 800214c:	f8d0 3808 	ldr.w	r3, [r0, #2056]	; 0x808
 8002150:	f013 0006 	ands.w	r0, r3, #6
 8002154:	d004      	beq.n	8002160 <USB_GetDevSpeed+0x14>
 8002156:	f013 0f02 	tst.w	r3, #2
 800215a:	bf14      	ite	ne
 800215c:	2002      	movne	r0, #2
 800215e:	200f      	moveq	r0, #15
 8002160:	4770      	bx	lr

08002162 <USB_ActivateEndpoint>:
 8002162:	b530      	push	{r4, r5, lr}
 8002164:	780c      	ldrb	r4, [r1, #0]
 8002166:	2201      	movs	r2, #1
 8002168:	f004 050f 	and.w	r5, r4, #15
 800216c:	40aa      	lsls	r2, r5
 800216e:	784d      	ldrb	r5, [r1, #1]
 8002170:	2d01      	cmp	r5, #1
 8002172:	f500 6300 	add.w	r3, r0, #2048	; 0x800
 8002176:	eb00 1044 	add.w	r0, r0, r4, lsl #5
 800217a:	d119      	bne.n	80021b0 <USB_ActivateEndpoint+0x4e>
 800217c:	69dd      	ldr	r5, [r3, #28]
 800217e:	432a      	orrs	r2, r5
 8002180:	61da      	str	r2, [r3, #28]
 8002182:	f8d0 3900 	ldr.w	r3, [r0, #2304]	; 0x900
 8002186:	041a      	lsls	r2, r3, #16
 8002188:	d410      	bmi.n	80021ac <USB_ActivateEndpoint+0x4a>
 800218a:	688a      	ldr	r2, [r1, #8]
 800218c:	f8d0 5900 	ldr.w	r5, [r0, #2304]	; 0x900
 8002190:	f3c2 030a 	ubfx	r3, r2, #0, #11
 8002194:	790a      	ldrb	r2, [r1, #4]
 8002196:	432b      	orrs	r3, r5
 8002198:	ea43 4382 	orr.w	r3, r3, r2, lsl #18
 800219c:	ea43 5384 	orr.w	r3, r3, r4, lsl #22
 80021a0:	f043 5380 	orr.w	r3, r3, #268435456	; 0x10000000
 80021a4:	f443 4300 	orr.w	r3, r3, #32768	; 0x8000
 80021a8:	f8c0 3900 	str.w	r3, [r0, #2304]	; 0x900
 80021ac:	2000      	movs	r0, #0
 80021ae:	bd30      	pop	{r4, r5, pc}
 80021b0:	69dc      	ldr	r4, [r3, #28]
 80021b2:	ea44 4202 	orr.w	r2, r4, r2, lsl #16
 80021b6:	61da      	str	r2, [r3, #28]
 80021b8:	f8d0 3b00 	ldr.w	r3, [r0, #2816]	; 0xb00
 80021bc:	041b      	lsls	r3, r3, #16
 80021be:	d4f5      	bmi.n	80021ac <USB_ActivateEndpoint+0x4a>
 80021c0:	688b      	ldr	r3, [r1, #8]
 80021c2:	f8d0 2b00 	ldr.w	r2, [r0, #2816]	; 0xb00
 80021c6:	f3c3 030a 	ubfx	r3, r3, #0, #11
 80021ca:	4313      	orrs	r3, r2
 80021cc:	790a      	ldrb	r2, [r1, #4]
 80021ce:	ea43 4382 	orr.w	r3, r3, r2, lsl #18
 80021d2:	f043 5380 	orr.w	r3, r3, #268435456	; 0x10000000
 80021d6:	f443 4300 	orr.w	r3, r3, #32768	; 0x8000
 80021da:	f8c0 3b00 	str.w	r3, [r0, #2816]	; 0xb00
 80021de:	e7e5      	b.n	80021ac <USB_ActivateEndpoint+0x4a>

080021e0 <USB_DeactivateEndpoint>:
 80021e0:	b510      	push	{r4, lr}
 80021e2:	780a      	ldrb	r2, [r1, #0]
 80021e4:	7849      	ldrb	r1, [r1, #1]
 80021e6:	2901      	cmp	r1, #1
 80021e8:	eb00 1342 	add.w	r3, r0, r2, lsl #5
 80021ec:	f500 6000 	add.w	r0, r0, #2048	; 0x800
 80021f0:	f002 020f 	and.w	r2, r2, #15
 80021f4:	d122      	bne.n	800223c <USB_DeactivateEndpoint+0x5c>
 80021f6:	f8d3 1900 	ldr.w	r1, [r3, #2304]	; 0x900
 80021fa:	2900      	cmp	r1, #0
 80021fc:	da0b      	bge.n	8002216 <USB_DeactivateEndpoint+0x36>
 80021fe:	f8d3 1900 	ldr.w	r1, [r3, #2304]	; 0x900
 8002202:	f041 6100 	orr.w	r1, r1, #134217728	; 0x8000000
 8002206:	f8c3 1900 	str.w	r1, [r3, #2304]	; 0x900
 800220a:	f8d3 1900 	ldr.w	r1, [r3, #2304]	; 0x900
 800220e:	f041 4180 	orr.w	r1, r1, #1073741824	; 0x40000000
 8002212:	f8c3 1900 	str.w	r1, [r3, #2304]	; 0x900
 8002216:	6bc4      	ldr	r4, [r0, #60]	; 0x3c
 8002218:	2101      	movs	r1, #1
 800221a:	fa01 f202 	lsl.w	r2, r1, r2
 800221e:	ea24 0402 	bic.w	r4, r4, r2
 8002222:	63c4      	str	r4, [r0, #60]	; 0x3c
 8002224:	69c1      	ldr	r1, [r0, #28]
 8002226:	ea21 0202 	bic.w	r2, r1, r2
 800222a:	61c2      	str	r2, [r0, #28]
 800222c:	f8d3 1900 	ldr.w	r1, [r3, #2304]	; 0x900
 8002230:	4a14      	ldr	r2, [pc, #80]	; (8002284 <USB_DeactivateEndpoint+0xa4>)
 8002232:	400a      	ands	r2, r1
 8002234:	f8c3 2900 	str.w	r2, [r3, #2304]	; 0x900
 8002238:	2000      	movs	r0, #0
 800223a:	bd10      	pop	{r4, pc}
 800223c:	f8d3 1b00 	ldr.w	r1, [r3, #2816]	; 0xb00
 8002240:	2900      	cmp	r1, #0
 8002242:	da0b      	bge.n	800225c <USB_DeactivateEndpoint+0x7c>
 8002244:	f8d3 1b00 	ldr.w	r1, [r3, #2816]	; 0xb00
 8002248:	f041 6100 	orr.w	r1, r1, #134217728	; 0x8000000
 800224c:	f8c3 1b00 	str.w	r1, [r3, #2816]	; 0xb00
 8002250:	f8d3 1b00 	ldr.w	r1, [r3, #2816]	; 0xb00
 8002254:	f041 4180 	orr.w	r1, r1, #1073741824	; 0x40000000
 8002258:	f8c3 1b00 	str.w	r1, [r3, #2816]	; 0xb00
 800225c:	6bc4      	ldr	r4, [r0, #60]	; 0x3c
 800225e:	f44f 3180 	mov.w	r1, #65536	; 0x10000
 8002262:	fa01 f202 	lsl.w	r2, r1, r2
 8002266:	ea24 0402 	bic.w	r4, r4, r2
 800226a:	63c4      	str	r4, [r0, #60]	; 0x3c
 800226c:	69c1      	ldr	r1, [r0, #28]
 800226e:	ea21 0202 	bic.w	r2, r1, r2
 8002272:	61c2      	str	r2, [r0, #28]
 8002274:	f8d3 1b00 	ldr.w	r1, [r3, #2816]	; 0xb00
 8002278:	4a03      	ldr	r2, [pc, #12]	; (8002288 <USB_DeactivateEndpoint+0xa8>)
 800227a:	400a      	ands	r2, r1
 800227c:	f8c3 2b00 	str.w	r2, [r3, #2816]	; 0xb00
 8002280:	e7da      	b.n	8002238 <USB_DeactivateEndpoint+0x58>
 8002282:	bf00      	nop
 8002284:	ec337800 	.word	0xec337800
 8002288:	eff37800 	.word	0xeff37800

0800228c <USB_EPStopXfer>:
 800228c:	b082      	sub	sp, #8
 800228e:	2300      	movs	r3, #0
 8002290:	784a      	ldrb	r2, [r1, #1]
 8002292:	9301      	str	r3, [sp, #4]
 8002294:	780b      	ldrb	r3, [r1, #0]
 8002296:	2a01      	cmp	r2, #1
 8002298:	ea4f 1343 	mov.w	r3, r3, lsl #5
 800229c:	d11e      	bne.n	80022dc <USB_EPStopXfer+0x50>
 800229e:	f500 6010 	add.w	r0, r0, #2304	; 0x900
 80022a2:	18c1      	adds	r1, r0, r3
 80022a4:	58c2      	ldr	r2, [r0, r3]
 80022a6:	2a00      	cmp	r2, #0
 80022a8:	db02      	blt.n	80022b0 <USB_EPStopXfer+0x24>
 80022aa:	2000      	movs	r0, #0
 80022ac:	b002      	add	sp, #8
 80022ae:	4770      	bx	lr
 80022b0:	58c2      	ldr	r2, [r0, r3]
 80022b2:	f042 6200 	orr.w	r2, r2, #134217728	; 0x8000000
 80022b6:	50c2      	str	r2, [r0, r3]
 80022b8:	58c2      	ldr	r2, [r0, r3]
 80022ba:	f042 4280 	orr.w	r2, r2, #1073741824	; 0x40000000
 80022be:	50c2      	str	r2, [r0, r3]
 80022c0:	f242 7210 	movw	r2, #10000	; 0x2710
 80022c4:	9b01      	ldr	r3, [sp, #4]
 80022c6:	3301      	adds	r3, #1
 80022c8:	9301      	str	r3, [sp, #4]
 80022ca:	9b01      	ldr	r3, [sp, #4]
 80022cc:	4293      	cmp	r3, r2
 80022ce:	d901      	bls.n	80022d4 <USB_EPStopXfer+0x48>
 80022d0:	2001      	movs	r0, #1
 80022d2:	e7eb      	b.n	80022ac <USB_EPStopXfer+0x20>
 80022d4:	680b      	ldr	r3, [r1, #0]
 80022d6:	2b00      	cmp	r3, #0
 80022d8:	dbf4      	blt.n	80022c4 <USB_EPStopXfer+0x38>
 80022da:	e7e6      	b.n	80022aa <USB_EPStopXfer+0x1e>
 80022dc:	f500 6030 	add.w	r0, r0, #2816	; 0xb00
 80022e0:	18c1      	adds	r1, r0, r3
 80022e2:	58c2      	ldr	r2, [r0, r3]
 80022e4:	2a00      	cmp	r2, #0
 80022e6:	dae0      	bge.n	80022aa <USB_EPStopXfer+0x1e>
 80022e8:	58c2      	ldr	r2, [r0, r3]
 80022ea:	f042 6200 	orr.w	r2, r2, #134217728	; 0x8000000
 80022ee:	50c2      	str	r2, [r0, r3]
 80022f0:	58c2      	ldr	r2, [r0, r3]
 80022f2:	f042 4280 	orr.w	r2, r2, #1073741824	; 0x40000000
 80022f6:	50c2      	str	r2, [r0, r3]
 80022f8:	f242 7210 	movw	r2, #10000	; 0x2710
 80022fc:	9b01      	ldr	r3, [sp, #4]
 80022fe:	3301      	adds	r3, #1
 8002300:	9301      	str	r3, [sp, #4]
 8002302:	9b01      	ldr	r3, [sp, #4]
 8002304:	4293      	cmp	r3, r2
 8002306:	d8e3      	bhi.n	80022d0 <USB_EPStopXfer+0x44>
 8002308:	680b      	ldr	r3, [r1, #0]
 800230a:	2b00      	cmp	r3, #0
 800230c:	dbf6      	blt.n	80022fc <USB_EPStopXfer+0x70>
 800230e:	e7cc      	b.n	80022aa <USB_EPStopXfer+0x1e>

08002310 <USB_WritePacket>:
 8002310:	b510      	push	{r4, lr}
 8002312:	f89d 4008 	ldrb.w	r4, [sp, #8]
 8002316:	b944      	cbnz	r4, 800232a <USB_WritePacket+0x1a>
 8002318:	3303      	adds	r3, #3
 800231a:	3201      	adds	r2, #1
 800231c:	089b      	lsrs	r3, r3, #2
 800231e:	eb00 3002 	add.w	r0, r0, r2, lsl #12
 8002322:	eb01 0383 	add.w	r3, r1, r3, lsl #2
 8002326:	428b      	cmp	r3, r1
 8002328:	d101      	bne.n	800232e <USB_WritePacket+0x1e>
 800232a:	2000      	movs	r0, #0
 800232c:	bd10      	pop	{r4, pc}
 800232e:	f851 2b04 	ldr.w	r2, [r1], #4
 8002332:	6002      	str	r2, [r0, #0]
 8002334:	e7f7      	b.n	8002326 <USB_WritePacket+0x16>
	...

08002338 <USB_EPStartXfer>:
 8002338:	b5f7      	push	{r0, r1, r2, r4, r5, r6, r7, lr}
 800233a:	784b      	ldrb	r3, [r1, #1]
 800233c:	690c      	ldr	r4, [r1, #16]
 800233e:	f8df c1b8 	ldr.w	ip, [pc, #440]	; 80024f8 <USB_EPStartXfer+0x1c0>
 8002342:	f8df e1b8 	ldr.w	lr, [pc, #440]	; 80024fc <USB_EPStartXfer+0x1c4>
 8002346:	4617      	mov	r7, r2
 8002348:	780a      	ldrb	r2, [r1, #0]
 800234a:	2b01      	cmp	r3, #1
 800234c:	eb00 1542 	add.w	r5, r0, r2, lsl #5
 8002350:	f040 8082 	bne.w	8002458 <USB_EPStartXfer+0x120>
 8002354:	f505 6610 	add.w	r6, r5, #2304	; 0x900
 8002358:	6933      	ldr	r3, [r6, #16]
 800235a:	bb44      	cbnz	r4, 80023ae <USB_EPStartXfer+0x76>
 800235c:	ea03 030c 	and.w	r3, r3, ip
 8002360:	6133      	str	r3, [r6, #16]
 8002362:	6933      	ldr	r3, [r6, #16]
 8002364:	f443 2300 	orr.w	r3, r3, #524288	; 0x80000
 8002368:	6133      	str	r3, [r6, #16]
 800236a:	6933      	ldr	r3, [r6, #16]
 800236c:	ea03 030e 	and.w	r3, r3, lr
 8002370:	6133      	str	r3, [r6, #16]
 8002372:	2f01      	cmp	r7, #1
 8002374:	790c      	ldrb	r4, [r1, #4]
 8002376:	d147      	bne.n	8002408 <USB_EPStartXfer+0xd0>
 8002378:	69cb      	ldr	r3, [r1, #28]
 800237a:	b103      	cbz	r3, 800237e <USB_EPStartXfer+0x46>
 800237c:	6173      	str	r3, [r6, #20]
 800237e:	2c01      	cmp	r4, #1
 8002380:	d10c      	bne.n	800239c <USB_EPStartXfer+0x64>
 8002382:	f8d0 3808 	ldr.w	r3, [r0, #2056]	; 0x808
 8002386:	f413 7f80 	tst.w	r3, #256	; 0x100
 800238a:	f8d5 3900 	ldr.w	r3, [r5, #2304]	; 0x900
 800238e:	bf0c      	ite	eq
 8002390:	f043 5300 	orreq.w	r3, r3, #536870912	; 0x20000000
 8002394:	f043 5380 	orrne.w	r3, r3, #268435456	; 0x10000000
 8002398:	f8c5 3900 	str.w	r3, [r5, #2304]	; 0x900
 800239c:	f8d5 3900 	ldr.w	r3, [r5, #2304]	; 0x900
 80023a0:	f043 4304 	orr.w	r3, r3, #2214592512	; 0x84000000
 80023a4:	f8c5 3900 	str.w	r3, [r5, #2304]	; 0x900
 80023a8:	2000      	movs	r0, #0
 80023aa:	b003      	add	sp, #12
 80023ac:	bdf0      	pop	{r4, r5, r6, r7, pc}
 80023ae:	ea03 030e 	and.w	r3, r3, lr
 80023b2:	6133      	str	r3, [r6, #16]
 80023b4:	6933      	ldr	r3, [r6, #16]
 80023b6:	ea03 030c 	and.w	r3, r3, ip
 80023ba:	6133      	str	r3, [r6, #16]
 80023bc:	688b      	ldr	r3, [r1, #8]
 80023be:	b9ba      	cbnz	r2, 80023f0 <USB_EPStartXfer+0xb8>
 80023c0:	42a3      	cmp	r3, r4
 80023c2:	bf38      	it	cc
 80023c4:	610b      	strcc	r3, [r1, #16]
 80023c6:	6933      	ldr	r3, [r6, #16]
 80023c8:	f443 2300 	orr.w	r3, r3, #524288	; 0x80000
 80023cc:	6133      	str	r3, [r6, #16]
 80023ce:	690b      	ldr	r3, [r1, #16]
 80023d0:	6934      	ldr	r4, [r6, #16]
 80023d2:	f3c3 0312 	ubfx	r3, r3, #0, #19
 80023d6:	4323      	orrs	r3, r4
 80023d8:	6133      	str	r3, [r6, #16]
 80023da:	790b      	ldrb	r3, [r1, #4]
 80023dc:	2b01      	cmp	r3, #1
 80023de:	d1c8      	bne.n	8002372 <USB_EPStartXfer+0x3a>
 80023e0:	6933      	ldr	r3, [r6, #16]
 80023e2:	f023 43c0 	bic.w	r3, r3, #1610612736	; 0x60000000
 80023e6:	6133      	str	r3, [r6, #16]
 80023e8:	6933      	ldr	r3, [r6, #16]
 80023ea:	f043 5300 	orr.w	r3, r3, #536870912	; 0x20000000
 80023ee:	e7bf      	b.n	8002370 <USB_EPStartXfer+0x38>
 80023f0:	441c      	add	r4, r3
 80023f2:	3c01      	subs	r4, #1
 80023f4:	fbb4 f4f3 	udiv	r4, r4, r3
 80023f8:	4b3e      	ldr	r3, [pc, #248]	; (80024f4 <USB_EPStartXfer+0x1bc>)
 80023fa:	f8d6 c010 	ldr.w	ip, [r6, #16]
 80023fe:	ea03 43c4 	and.w	r3, r3, r4, lsl #19
 8002402:	ea43 030c 	orr.w	r3, r3, ip
 8002406:	e7e1      	b.n	80023cc <USB_EPStartXfer+0x94>
 8002408:	f8d5 3900 	ldr.w	r3, [r5, #2304]	; 0x900
 800240c:	2c01      	cmp	r4, #1
 800240e:	f043 4304 	orr.w	r3, r3, #2214592512	; 0x84000000
 8002412:	f8c5 3900 	str.w	r3, [r5, #2304]	; 0x900
 8002416:	690b      	ldr	r3, [r1, #16]
 8002418:	d00b      	beq.n	8002432 <USB_EPStartXfer+0xfa>
 800241a:	2b00      	cmp	r3, #0
 800241c:	d0c4      	beq.n	80023a8 <USB_EPStartXfer+0x70>
 800241e:	f8d0 1834 	ldr.w	r1, [r0, #2100]	; 0x834
 8002422:	f002 020f 	and.w	r2, r2, #15
 8002426:	2301      	movs	r3, #1
 8002428:	4093      	lsls	r3, r2
 800242a:	430b      	orrs	r3, r1
 800242c:	f8c0 3834 	str.w	r3, [r0, #2100]	; 0x834
 8002430:	e7ba      	b.n	80023a8 <USB_EPStartXfer+0x70>
 8002432:	f8d0 4808 	ldr.w	r4, [r0, #2056]	; 0x808
 8002436:	f414 7f80 	tst.w	r4, #256	; 0x100
 800243a:	f8d5 4900 	ldr.w	r4, [r5, #2304]	; 0x900
 800243e:	bf0c      	ite	eq
 8002440:	f044 5400 	orreq.w	r4, r4, #536870912	; 0x20000000
 8002444:	f044 5480 	orrne.w	r4, r4, #268435456	; 0x10000000
 8002448:	f8c5 4900 	str.w	r4, [r5, #2304]	; 0x900
 800244c:	9700      	str	r7, [sp, #0]
 800244e:	68c9      	ldr	r1, [r1, #12]
 8002450:	b29b      	uxth	r3, r3
 8002452:	f7ff ff5d 	bl	8002310 <USB_WritePacket>
 8002456:	e7a7      	b.n	80023a8 <USB_EPStartXfer+0x70>
 8002458:	f8d5 3b10 	ldr.w	r3, [r5, #2832]	; 0xb10
 800245c:	ea03 030e 	and.w	r3, r3, lr
 8002460:	f8c5 3b10 	str.w	r3, [r5, #2832]	; 0xb10
 8002464:	f8d5 3b10 	ldr.w	r3, [r5, #2832]	; 0xb10
 8002468:	ea03 030c 	and.w	r3, r3, ip
 800246c:	f505 6630 	add.w	r6, r5, #2816	; 0xb00
 8002470:	6133      	str	r3, [r6, #16]
 8002472:	688b      	ldr	r3, [r1, #8]
 8002474:	bb3a      	cbnz	r2, 80024c6 <USB_EPStartXfer+0x18e>
 8002476:	b104      	cbz	r4, 800247a <USB_EPStartXfer+0x142>
 8002478:	610b      	str	r3, [r1, #16]
 800247a:	620b      	str	r3, [r1, #32]
 800247c:	6932      	ldr	r2, [r6, #16]
 800247e:	f3c3 0312 	ubfx	r3, r3, #0, #19
 8002482:	4313      	orrs	r3, r2
 8002484:	6133      	str	r3, [r6, #16]
 8002486:	6933      	ldr	r3, [r6, #16]
 8002488:	f443 2300 	orr.w	r3, r3, #524288	; 0x80000
 800248c:	2f01      	cmp	r7, #1
 800248e:	6133      	str	r3, [r6, #16]
 8002490:	d102      	bne.n	8002498 <USB_EPStartXfer+0x160>
 8002492:	68cb      	ldr	r3, [r1, #12]
 8002494:	b103      	cbz	r3, 8002498 <USB_EPStartXfer+0x160>
 8002496:	6173      	str	r3, [r6, #20]
 8002498:	790b      	ldrb	r3, [r1, #4]
 800249a:	2b01      	cmp	r3, #1
 800249c:	d10c      	bne.n	80024b8 <USB_EPStartXfer+0x180>
 800249e:	f8d0 3808 	ldr.w	r3, [r0, #2056]	; 0x808
 80024a2:	f413 7f80 	tst.w	r3, #256	; 0x100
 80024a6:	f8d5 3b00 	ldr.w	r3, [r5, #2816]	; 0xb00
 80024aa:	bf0c      	ite	eq
 80024ac:	f043 5300 	orreq.w	r3, r3, #536870912	; 0x20000000
 80024b0:	f043 5380 	orrne.w	r3, r3, #268435456	; 0x10000000
 80024b4:	f8c5 3b00 	str.w	r3, [r5, #2816]	; 0xb00
 80024b8:	f8d5 3b00 	ldr.w	r3, [r5, #2816]	; 0xb00
 80024bc:	f043 4304 	orr.w	r3, r3, #2214592512	; 0x84000000
 80024c0:	f8c5 3b00 	str.w	r3, [r5, #2816]	; 0xb00
 80024c4:	e770      	b.n	80023a8 <USB_EPStartXfer+0x70>
 80024c6:	2c00      	cmp	r4, #0
 80024c8:	d0d8      	beq.n	800247c <USB_EPStartXfer+0x144>
 80024ca:	441c      	add	r4, r3
 80024cc:	4a09      	ldr	r2, [pc, #36]	; (80024f4 <USB_EPStartXfer+0x1bc>)
 80024ce:	f8d6 c010 	ldr.w	ip, [r6, #16]
 80024d2:	3c01      	subs	r4, #1
 80024d4:	fbb4 f4f3 	udiv	r4, r4, r3
 80024d8:	b2a4      	uxth	r4, r4
 80024da:	ea02 42c4 	and.w	r2, r2, r4, lsl #19
 80024de:	4363      	muls	r3, r4
 80024e0:	ea42 020c 	orr.w	r2, r2, ip
 80024e4:	620b      	str	r3, [r1, #32]
 80024e6:	6132      	str	r2, [r6, #16]
 80024e8:	6932      	ldr	r2, [r6, #16]
 80024ea:	f3c3 0312 	ubfx	r3, r3, #0, #19
 80024ee:	4313      	orrs	r3, r2
 80024f0:	e7cc      	b.n	800248c <USB_EPStartXfer+0x154>
 80024f2:	bf00      	nop
 80024f4:	1ff80000 	.word	0x1ff80000
 80024f8:	e007ffff 	.word	0xe007ffff
 80024fc:	fff80000 	.word	0xfff80000

08002500 <USB_ReadPacket>:
 8002500:	b570      	push	{r4, r5, r6, lr}
 8002502:	2300      	movs	r3, #0
 8002504:	0894      	lsrs	r4, r2, #2
 8002506:	f500 5580 	add.w	r5, r0, #4096	; 0x1000
 800250a:	f002 0203 	and.w	r2, r2, #3
 800250e:	42a3      	cmp	r3, r4
 8002510:	d311      	bcc.n	8002536 <USB_ReadPacket+0x36>
 8002512:	eb01 0184 	add.w	r1, r1, r4, lsl #2
 8002516:	b162      	cbz	r2, 8002532 <USB_ReadPacket+0x32>
 8002518:	f500 5080 	add.w	r0, r0, #4096	; 0x1000
 800251c:	2300      	movs	r3, #0
 800251e:	6804      	ldr	r4, [r0, #0]
 8002520:	00d8      	lsls	r0, r3, #3
 8002522:	fa24 f000 	lsr.w	r0, r4, r0
 8002526:	54c8      	strb	r0, [r1, r3]
 8002528:	3301      	adds	r3, #1
 800252a:	b298      	uxth	r0, r3
 800252c:	4282      	cmp	r2, r0
 800252e:	d1f7      	bne.n	8002520 <USB_ReadPacket+0x20>
 8002530:	4411      	add	r1, r2
 8002532:	4608      	mov	r0, r1
 8002534:	bd70      	pop	{r4, r5, r6, pc}
 8002536:	682e      	ldr	r6, [r5, #0]
 8002538:	f841 6023 	str.w	r6, [r1, r3, lsl #2]
 800253c:	3301      	adds	r3, #1
 800253e:	e7e6      	b.n	800250e <USB_ReadPacket+0xe>

08002540 <USB_EPSetStall>:
 8002540:	784a      	ldrb	r2, [r1, #1]
 8002542:	780b      	ldrb	r3, [r1, #0]
 8002544:	2a01      	cmp	r2, #1
 8002546:	eb00 1043 	add.w	r0, r0, r3, lsl #5
 800254a:	d112      	bne.n	8002572 <USB_EPSetStall+0x32>
 800254c:	f8d0 2900 	ldr.w	r2, [r0, #2304]	; 0x900
 8002550:	2a00      	cmp	r2, #0
 8002552:	db06      	blt.n	8002562 <USB_EPSetStall+0x22>
 8002554:	b12b      	cbz	r3, 8002562 <USB_EPSetStall+0x22>
 8002556:	f8d0 3900 	ldr.w	r3, [r0, #2304]	; 0x900
 800255a:	f023 4380 	bic.w	r3, r3, #1073741824	; 0x40000000
 800255e:	f8c0 3900 	str.w	r3, [r0, #2304]	; 0x900
 8002562:	f8d0 3900 	ldr.w	r3, [r0, #2304]	; 0x900
 8002566:	f443 1300 	orr.w	r3, r3, #2097152	; 0x200000
 800256a:	f8c0 3900 	str.w	r3, [r0, #2304]	; 0x900
 800256e:	2000      	movs	r0, #0
 8002570:	4770      	bx	lr
 8002572:	f8d0 2b00 	ldr.w	r2, [r0, #2816]	; 0xb00
 8002576:	2a00      	cmp	r2, #0
 8002578:	db06      	blt.n	8002588 <USB_EPSetStall+0x48>
 800257a:	b12b      	cbz	r3, 8002588 <USB_EPSetStall+0x48>
 800257c:	f8d0 3b00 	ldr.w	r3, [r0, #2816]	; 0xb00
 8002580:	f023 4380 	bic.w	r3, r3, #1073741824	; 0x40000000
 8002584:	f8c0 3b00 	str.w	r3, [r0, #2816]	; 0xb00
 8002588:	f8d0 3b00 	ldr.w	r3, [r0, #2816]	; 0xb00
 800258c:	f443 1300 	orr.w	r3, r3, #2097152	; 0x200000
 8002590:	f8c0 3b00 	str.w	r3, [r0, #2816]	; 0xb00
 8002594:	e7eb      	b.n	800256e <USB_EPSetStall+0x2e>

08002596 <USB_EPClearStall>:
 8002596:	780b      	ldrb	r3, [r1, #0]
 8002598:	784a      	ldrb	r2, [r1, #1]
 800259a:	eb00 1043 	add.w	r0, r0, r3, lsl #5
 800259e:	790b      	ldrb	r3, [r1, #4]
 80025a0:	2a01      	cmp	r2, #1
 80025a2:	f1a3 0302 	sub.w	r3, r3, #2
 80025a6:	b2db      	uxtb	r3, r3
 80025a8:	d10f      	bne.n	80025ca <USB_EPClearStall+0x34>
 80025aa:	f8d0 2900 	ldr.w	r2, [r0, #2304]	; 0x900
 80025ae:	2b01      	cmp	r3, #1
 80025b0:	f422 1200 	bic.w	r2, r2, #2097152	; 0x200000
 80025b4:	f8c0 2900 	str.w	r2, [r0, #2304]	; 0x900
 80025b8:	d805      	bhi.n	80025c6 <USB_EPClearStall+0x30>
 80025ba:	f8d0 3900 	ldr.w	r3, [r0, #2304]	; 0x900
 80025be:	f043 5380 	orr.w	r3, r3, #268435456	; 0x10000000
 80025c2:	f8c0 3900 	str.w	r3, [r0, #2304]	; 0x900
 80025c6:	2000      	movs	r0, #0
 80025c8:	4770      	bx	lr
 80025ca:	f8d0 2b00 	ldr.w	r2, [r0, #2816]	; 0xb00
 80025ce:	f422 1200 	bic.w	r2, r2, #2097152	; 0x200000
 80025d2:	2b01      	cmp	r3, #1
 80025d4:	f8c0 2b00 	str.w	r2, [r0, #2816]	; 0xb00
 80025d8:	bf9e      	ittt	ls
 80025da:	f8d0 3b00 	ldrls.w	r3, [r0, #2816]	; 0xb00
 80025de:	f043 5380 	orrls.w	r3, r3, #268435456	; 0x10000000
 80025e2:	f8c0 3b00 	strls.w	r3, [r0, #2816]	; 0xb00
 80025e6:	e7ee      	b.n	80025c6 <USB_EPClearStall+0x30>

080025e8 <USB_SetDevAddress>:
 80025e8:	f8d0 3800 	ldr.w	r3, [r0, #2048]	; 0x800
 80025ec:	f423 63fe 	bic.w	r3, r3, #2032	; 0x7f0
 80025f0:	f8c0 3800 	str.w	r3, [r0, #2048]	; 0x800
 80025f4:	f8d0 3800 	ldr.w	r3, [r0, #2048]	; 0x800
 80025f8:	0109      	lsls	r1, r1, #4
 80025fa:	f401 61fe 	and.w	r1, r1, #2032	; 0x7f0
 80025fe:	4319      	orrs	r1, r3
 8002600:	f8c0 1800 	str.w	r1, [r0, #2048]	; 0x800
 8002604:	2000      	movs	r0, #0
 8002606:	4770      	bx	lr

08002608 <USB_DevConnect>:
 8002608:	f8d0 3e00 	ldr.w	r3, [r0, #3584]	; 0xe00
 800260c:	f023 0303 	bic.w	r3, r3, #3
 8002610:	f8c0 3e00 	str.w	r3, [r0, #3584]	; 0xe00
 8002614:	f8d0 3804 	ldr.w	r3, [r0, #2052]	; 0x804
 8002618:	f023 0302 	bic.w	r3, r3, #2
 800261c:	f8c0 3804 	str.w	r3, [r0, #2052]	; 0x804
 8002620:	2000      	movs	r0, #0
 8002622:	4770      	bx	lr

08002624 <USB_DevDisconnect>:
 8002624:	f8d0 3e00 	ldr.w	r3, [r0, #3584]	; 0xe00
 8002628:	f023 0303 	bic.w	r3, r3, #3
 800262c:	f8c0 3e00 	str.w	r3, [r0, #3584]	; 0xe00
 8002630:	f8d0 3804 	ldr.w	r3, [r0, #2052]	; 0x804
 8002634:	f043 0302 	orr.w	r3, r3, #2
 8002638:	f8c0 3804 	str.w	r3, [r0, #2052]	; 0x804
 800263c:	2000      	movs	r0, #0
 800263e:	4770      	bx	lr

08002640 <USB_ReadInterrupts>:
 8002640:	6942      	ldr	r2, [r0, #20]
 8002642:	6980      	ldr	r0, [r0, #24]
 8002644:	4010      	ands	r0, r2
 8002646:	4770      	bx	lr

08002648 <USB_ReadDevAllOutEpInterrupt>:
 8002648:	f8d0 3818 	ldr.w	r3, [r0, #2072]	; 0x818
 800264c:	f500 6000 	add.w	r0, r0, #2048	; 0x800
 8002650:	69c0      	ldr	r0, [r0, #28]
 8002652:	4018      	ands	r0, r3
 8002654:	0c00      	lsrs	r0, r0, #16
 8002656:	4770      	bx	lr

08002658 <USB_ReadDevAllInEpInterrupt>:
 8002658:	f8d0 3818 	ldr.w	r3, [r0, #2072]	; 0x818
 800265c:	f500 6000 	add.w	r0, r0, #2048	; 0x800
 8002660:	69c0      	ldr	r0, [r0, #28]
 8002662:	4018      	ands	r0, r3
 8002664:	b280      	uxth	r0, r0
 8002666:	4770      	bx	lr

08002668 <USB_ReadDevOutEPInterrupt>:
 8002668:	eb00 1141 	add.w	r1, r0, r1, lsl #5
 800266c:	f500 6000 	add.w	r0, r0, #2048	; 0x800
 8002670:	f8d1 2b08 	ldr.w	r2, [r1, #2824]	; 0xb08
 8002674:	6940      	ldr	r0, [r0, #20]
 8002676:	4010      	ands	r0, r2
 8002678:	4770      	bx	lr

0800267a <USB_ReadDevInEPInterrupt>:
 800267a:	f8d0 2810 	ldr.w	r2, [r0, #2064]	; 0x810
 800267e:	f8d0 3834 	ldr.w	r3, [r0, #2100]	; 0x834
 8002682:	eb00 1041 	add.w	r0, r0, r1, lsl #5
 8002686:	f001 010f 	and.w	r1, r1, #15
 800268a:	40cb      	lsrs	r3, r1
 800268c:	f500 6010 	add.w	r0, r0, #2304	; 0x900
 8002690:	01db      	lsls	r3, r3, #7
 8002692:	6880      	ldr	r0, [r0, #8]
 8002694:	b2db      	uxtb	r3, r3
 8002696:	4313      	orrs	r3, r2
 8002698:	4018      	ands	r0, r3
 800269a:	4770      	bx	lr

0800269c <USB_GetMode>:
 800269c:	6940      	ldr	r0, [r0, #20]
 800269e:	f000 0001 	and.w	r0, r0, #1
 80026a2:	4770      	bx	lr

080026a4 <USB_ActivateSetup>:
 80026a4:	f8d0 3900 	ldr.w	r3, [r0, #2304]	; 0x900
 80026a8:	f423 63ff 	bic.w	r3, r3, #2040	; 0x7f8
 80026ac:	f023 0307 	bic.w	r3, r3, #7
 80026b0:	f8c0 3900 	str.w	r3, [r0, #2304]	; 0x900
 80026b4:	f8d0 3804 	ldr.w	r3, [r0, #2052]	; 0x804
 80026b8:	f443 7380 	orr.w	r3, r3, #256	; 0x100
 80026bc:	f8c0 3804 	str.w	r3, [r0, #2052]	; 0x804
 80026c0:	2000      	movs	r0, #0
 80026c2:	4770      	bx	lr

080026c4 <USB_EP0_OutStart>:
 80026c4:	b530      	push	{r4, r5, lr}
 80026c6:	6c05      	ldr	r5, [r0, #64]	; 0x40
 80026c8:	4c10      	ldr	r4, [pc, #64]	; (800270c <USB_EP0_OutStart+0x48>)
 80026ca:	42a5      	cmp	r5, r4
 80026cc:	f500 6330 	add.w	r3, r0, #2816	; 0xb00
 80026d0:	d903      	bls.n	80026da <USB_EP0_OutStart+0x16>
 80026d2:	f8d0 4b00 	ldr.w	r4, [r0, #2816]	; 0xb00
 80026d6:	2c00      	cmp	r4, #0
 80026d8:	db16      	blt.n	8002708 <USB_EP0_OutStart+0x44>
 80026da:	2400      	movs	r4, #0
 80026dc:	611c      	str	r4, [r3, #16]
 80026de:	691c      	ldr	r4, [r3, #16]
 80026e0:	f444 2400 	orr.w	r4, r4, #524288	; 0x80000
 80026e4:	611c      	str	r4, [r3, #16]
 80026e6:	691c      	ldr	r4, [r3, #16]
 80026e8:	f044 0418 	orr.w	r4, r4, #24
 80026ec:	611c      	str	r4, [r3, #16]
 80026ee:	691c      	ldr	r4, [r3, #16]
 80026f0:	2901      	cmp	r1, #1
 80026f2:	f044 44c0 	orr.w	r4, r4, #1610612736	; 0x60000000
 80026f6:	611c      	str	r4, [r3, #16]
 80026f8:	bf01      	itttt	eq
 80026fa:	615a      	streq	r2, [r3, #20]
 80026fc:	f8d0 3b00 	ldreq.w	r3, [r0, #2816]	; 0xb00
 8002700:	f043 2380 	orreq.w	r3, r3, #2147516416	; 0x80008000
 8002704:	f8c0 3b00 	streq.w	r3, [r0, #2816]	; 0xb00
 8002708:	2000      	movs	r0, #0
 800270a:	bd30      	pop	{r4, r5, pc}
 800270c:	4f54300a 	.word	0x4f54300a

08002710 <USBD_CUSTOM_HID_DataIn>:
 8002710:	f8d0 32d4 	ldr.w	r3, [r0, #724]	; 0x2d4
 8002714:	33b0      	adds	r3, #176	; 0xb0
 8002716:	f850 3023 	ldr.w	r3, [r0, r3, lsl #2]
 800271a:	2000      	movs	r0, #0
 800271c:	f883 0050 	strb.w	r0, [r3, #80]	; 0x50
 8002720:	4770      	bx	lr

08002722 <USBD_CUSTOM_HID_DataOut>:
 8002722:	b508      	push	{r3, lr}
 8002724:	f8d0 32d4 	ldr.w	r3, [r0, #724]	; 0x2d4
 8002728:	eb00 0083 	add.w	r0, r0, r3, lsl #2
 800272c:	f8d0 32c0 	ldr.w	r3, [r0, #704]	; 0x2c0
 8002730:	b13b      	cbz	r3, 8002742 <USBD_CUSTOM_HID_DataOut+0x20>
 8002732:	f8d0 22c4 	ldr.w	r2, [r0, #708]	; 0x2c4
 8002736:	7859      	ldrb	r1, [r3, #1]
 8002738:	68d2      	ldr	r2, [r2, #12]
 800273a:	7818      	ldrb	r0, [r3, #0]
 800273c:	4790      	blx	r2
 800273e:	2000      	movs	r0, #0
 8002740:	bd08      	pop	{r3, pc}
 8002742:	2003      	movs	r0, #3
 8002744:	e7fc      	b.n	8002740 <USBD_CUSTOM_HID_DataOut+0x1e>

08002746 <USBD_CUSTOM_HID_EP0_RxReady>:
 8002746:	f8d0 32d4 	ldr.w	r3, [r0, #724]	; 0x2d4
 800274a:	eb00 0083 	add.w	r0, r0, r3, lsl #2
 800274e:	b510      	push	{r4, lr}
 8002750:	f8d0 42c0 	ldr.w	r4, [r0, #704]	; 0x2c0
 8002754:	b15c      	cbz	r4, 800276e <USBD_CUSTOM_HID_EP0_RxReady+0x28>
 8002756:	6ce3      	ldr	r3, [r4, #76]	; 0x4c
 8002758:	2b01      	cmp	r3, #1
 800275a:	d10a      	bne.n	8002772 <USBD_CUSTOM_HID_EP0_RxReady+0x2c>
 800275c:	f8d0 32c4 	ldr.w	r3, [r0, #708]	; 0x2c4
 8002760:	7861      	ldrb	r1, [r4, #1]
 8002762:	68db      	ldr	r3, [r3, #12]
 8002764:	7820      	ldrb	r0, [r4, #0]
 8002766:	4798      	blx	r3
 8002768:	2000      	movs	r0, #0
 800276a:	64e0      	str	r0, [r4, #76]	; 0x4c
 800276c:	bd10      	pop	{r4, pc}
 800276e:	2003      	movs	r0, #3
 8002770:	e7fc      	b.n	800276c <USBD_CUSTOM_HID_EP0_RxReady+0x26>
 8002772:	2000      	movs	r0, #0
 8002774:	e7fa      	b.n	800276c <USBD_CUSTOM_HID_EP0_RxReady+0x26>
	...

08002778 <USBD_CUSTOM_HID_GetDeviceQualifierDesc>:
 8002778:	230a      	movs	r3, #10
 800277a:	8003      	strh	r3, [r0, #0]
 800277c:	4800      	ldr	r0, [pc, #0]	; (8002780 <USBD_CUSTOM_HID_GetDeviceQualifierDesc+0x8>)
 800277e:	4770      	bx	lr
 8002780:	20000098 	.word	0x20000098

08002784 <USBD_CUSTOM_HID_GetFSCfgDesc>:
 8002784:	b538      	push	{r3, r4, r5, lr}
 8002786:	2181      	movs	r1, #129	; 0x81
 8002788:	4605      	mov	r5, r0
 800278a:	480d      	ldr	r0, [pc, #52]	; (80027c0 <USBD_CUSTOM_HID_GetFSCfgDesc+0x3c>)
 800278c:	f000 fabb 	bl	8002d06 <USBD_GetEpDesc>
 8002790:	2101      	movs	r1, #1
 8002792:	4604      	mov	r4, r0
 8002794:	480a      	ldr	r0, [pc, #40]	; (80027c0 <USBD_CUSTOM_HID_GetFSCfgDesc+0x3c>)
 8002796:	f000 fab6 	bl	8002d06 <USBD_GetEpDesc>
 800279a:	b12c      	cbz	r4, 80027a8 <USBD_CUSTOM_HID_GetFSCfgDesc+0x24>
 800279c:	2202      	movs	r2, #2
 800279e:	7122      	strb	r2, [r4, #4]
 80027a0:	2200      	movs	r2, #0
 80027a2:	7162      	strb	r2, [r4, #5]
 80027a4:	2205      	movs	r2, #5
 80027a6:	71a2      	strb	r2, [r4, #6]
 80027a8:	b128      	cbz	r0, 80027b6 <USBD_CUSTOM_HID_GetFSCfgDesc+0x32>
 80027aa:	2202      	movs	r2, #2
 80027ac:	7102      	strb	r2, [r0, #4]
 80027ae:	2200      	movs	r2, #0
 80027b0:	7142      	strb	r2, [r0, #5]
 80027b2:	2205      	movs	r2, #5
 80027b4:	7182      	strb	r2, [r0, #6]
 80027b6:	2345      	movs	r3, #69	; 0x45
 80027b8:	4801      	ldr	r0, [pc, #4]	; (80027c0 <USBD_CUSTOM_HID_GetFSCfgDesc+0x3c>)
 80027ba:	802b      	strh	r3, [r5, #0]
 80027bc:	bd38      	pop	{r3, r4, r5, pc}
 80027be:	bf00      	nop
 80027c0:	20000044 	.word	0x20000044

080027c4 <USBD_CUSTOM_HID_GetHSCfgDesc>:
 80027c4:	f7ff bfde 	b.w	8002784 <USBD_CUSTOM_HID_GetFSCfgDesc>

080027c8 <USBD_CUSTOM_HID_GetOtherSpeedCfgDesc>:
 80027c8:	f7ff bfdc 	b.w	8002784 <USBD_CUSTOM_HID_GetFSCfgDesc>

080027cc <USBD_CUSTOM_HID_Setup>:
 80027cc:	b573      	push	{r0, r1, r4, r5, r6, lr}
 80027ce:	f8d0 52d4 	ldr.w	r5, [r0, #724]	; 0x2d4
 80027d2:	eb00 0585 	add.w	r5, r0, r5, lsl #2
 80027d6:	2200      	movs	r2, #0
 80027d8:	f8d5 32c0 	ldr.w	r3, [r5, #704]	; 0x2c0
 80027dc:	f8ad 2006 	strh.w	r2, [sp, #6]
 80027e0:	2b00      	cmp	r3, #0
 80027e2:	d05a      	beq.n	800289a <USBD_CUSTOM_HID_Setup+0xce>
 80027e4:	780c      	ldrb	r4, [r1, #0]
 80027e6:	f014 0460 	ands.w	r4, r4, #96	; 0x60
 80027ea:	d02a      	beq.n	8002842 <USBD_CUSTOM_HID_Setup+0x76>
 80027ec:	2c20      	cmp	r4, #32
 80027ee:	d152      	bne.n	8002896 <USBD_CUSTOM_HID_Setup+0xca>
 80027f0:	784a      	ldrb	r2, [r1, #1]
 80027f2:	3a02      	subs	r2, #2
 80027f4:	2a09      	cmp	r2, #9
 80027f6:	d84e      	bhi.n	8002896 <USBD_CUSTOM_HID_Setup+0xca>
 80027f8:	e8df f002 	tbb	[pc, r2]
 80027fc:	4d4d0b15 	.word	0x4d4d0b15
 8002800:	194d4d4d 	.word	0x194d4d4d
 8002804:	0511      	.short	0x0511
 8002806:	788a      	ldrb	r2, [r1, #2]
 8002808:	641a      	str	r2, [r3, #64]	; 0x40
 800280a:	2400      	movs	r4, #0
 800280c:	4620      	mov	r0, r4
 800280e:	b002      	add	sp, #8
 8002810:	bd70      	pop	{r4, r5, r6, pc}
 8002812:	2201      	movs	r2, #1
 8002814:	f103 0140 	add.w	r1, r3, #64	; 0x40
 8002818:	f000 fce3 	bl	80031e2 <USBD_CtlSendData>
 800281c:	e7f5      	b.n	800280a <USBD_CUSTOM_HID_Setup+0x3e>
 800281e:	884a      	ldrh	r2, [r1, #2]
 8002820:	0a12      	lsrs	r2, r2, #8
 8002822:	645a      	str	r2, [r3, #68]	; 0x44
 8002824:	e7f1      	b.n	800280a <USBD_CUSTOM_HID_Setup+0x3e>
 8002826:	2201      	movs	r2, #1
 8002828:	f103 0144 	add.w	r1, r3, #68	; 0x44
 800282c:	e7f4      	b.n	8002818 <USBD_CUSTOM_HID_Setup+0x4c>
 800282e:	2201      	movs	r2, #1
 8002830:	64da      	str	r2, [r3, #76]	; 0x4c
 8002832:	88ca      	ldrh	r2, [r1, #6]
 8002834:	2a40      	cmp	r2, #64	; 0x40
 8002836:	bf28      	it	cs
 8002838:	2240      	movcs	r2, #64	; 0x40
 800283a:	4619      	mov	r1, r3
 800283c:	f000 fce6 	bl	800320c <USBD_CtlPrepareRx>
 8002840:	e7e3      	b.n	800280a <USBD_CUSTOM_HID_Setup+0x3e>
 8002842:	784e      	ldrb	r6, [r1, #1]
 8002844:	2e0b      	cmp	r6, #11
 8002846:	d826      	bhi.n	8002896 <USBD_CUSTOM_HID_Setup+0xca>
 8002848:	a201      	add	r2, pc, #4	; (adr r2, 8002850 <USBD_CUSTOM_HID_Setup+0x84>)
 800284a:	f852 f026 	ldr.w	pc, [r2, r6, lsl #2]
 800284e:	bf00      	nop
 8002850:	08002881 	.word	0x08002881
 8002854:	0800280d 	.word	0x0800280d
 8002858:	08002897 	.word	0x08002897
 800285c:	08002897 	.word	0x08002897
 8002860:	08002897 	.word	0x08002897
 8002864:	08002897 	.word	0x08002897
 8002868:	0800289f 	.word	0x0800289f
 800286c:	08002897 	.word	0x08002897
 8002870:	08002897 	.word	0x08002897
 8002874:	08002897 	.word	0x08002897
 8002878:	080028d1 	.word	0x080028d1
 800287c:	080028e1 	.word	0x080028e1
 8002880:	f890 329c 	ldrb.w	r3, [r0, #668]	; 0x29c
 8002884:	2b03      	cmp	r3, #3
 8002886:	d106      	bne.n	8002896 <USBD_CUSTOM_HID_Setup+0xca>
 8002888:	2202      	movs	r2, #2
 800288a:	f10d 0106 	add.w	r1, sp, #6
 800288e:	f000 fca8 	bl	80031e2 <USBD_CtlSendData>
 8002892:	4634      	mov	r4, r6
 8002894:	e7ba      	b.n	800280c <USBD_CUSTOM_HID_Setup+0x40>
 8002896:	f000 fc7d 	bl	8003194 <USBD_CtlError>
 800289a:	2403      	movs	r4, #3
 800289c:	e7b6      	b.n	800280c <USBD_CUSTOM_HID_Setup+0x40>
 800289e:	884b      	ldrh	r3, [r1, #2]
 80028a0:	0a1b      	lsrs	r3, r3, #8
 80028a2:	2b22      	cmp	r3, #34	; 0x22
 80028a4:	d109      	bne.n	80028ba <USBD_CUSTOM_HID_Setup+0xee>
 80028a6:	88ca      	ldrh	r2, [r1, #6]
 80028a8:	f8d5 32c4 	ldr.w	r3, [r5, #708]	; 0x2c4
 80028ac:	2a4c      	cmp	r2, #76	; 0x4c
 80028ae:	6819      	ldr	r1, [r3, #0]
 80028b0:	bf28      	it	cs
 80028b2:	224c      	movcs	r2, #76	; 0x4c
 80028b4:	f000 fc95 	bl	80031e2 <USBD_CtlSendData>
 80028b8:	e7a8      	b.n	800280c <USBD_CUSTOM_HID_Setup+0x40>
 80028ba:	2b21      	cmp	r3, #33	; 0x21
 80028bc:	d105      	bne.n	80028ca <USBD_CUSTOM_HID_Setup+0xfe>
 80028be:	88ca      	ldrh	r2, [r1, #6]
 80028c0:	490b      	ldr	r1, [pc, #44]	; (80028f0 <USBD_CUSTOM_HID_Setup+0x124>)
 80028c2:	2a09      	cmp	r2, #9
 80028c4:	bf28      	it	cs
 80028c6:	2209      	movcs	r2, #9
 80028c8:	e7f4      	b.n	80028b4 <USBD_CUSTOM_HID_Setup+0xe8>
 80028ca:	2100      	movs	r1, #0
 80028cc:	460a      	mov	r2, r1
 80028ce:	e7f1      	b.n	80028b4 <USBD_CUSTOM_HID_Setup+0xe8>
 80028d0:	f890 229c 	ldrb.w	r2, [r0, #668]	; 0x29c
 80028d4:	2a03      	cmp	r2, #3
 80028d6:	d1de      	bne.n	8002896 <USBD_CUSTOM_HID_Setup+0xca>
 80028d8:	2201      	movs	r2, #1
 80028da:	f103 0148 	add.w	r1, r3, #72	; 0x48
 80028de:	e7e9      	b.n	80028b4 <USBD_CUSTOM_HID_Setup+0xe8>
 80028e0:	f890 229c 	ldrb.w	r2, [r0, #668]	; 0x29c
 80028e4:	2a03      	cmp	r2, #3
 80028e6:	d1d6      	bne.n	8002896 <USBD_CUSTOM_HID_Setup+0xca>
 80028e8:	788a      	ldrb	r2, [r1, #2]
 80028ea:	649a      	str	r2, [r3, #72]	; 0x48
 80028ec:	e78e      	b.n	800280c <USBD_CUSTOM_HID_Setup+0x40>
 80028ee:	bf00      	nop
 80028f0:	2000008c 	.word	0x2000008c

080028f4 <USBD_CUSTOM_HID_DeInit>:
 80028f4:	b538      	push	{r3, r4, r5, lr}
 80028f6:	4604      	mov	r4, r0
 80028f8:	2181      	movs	r1, #129	; 0x81
 80028fa:	2500      	movs	r5, #0
 80028fc:	f000 fe6f 	bl	80035de <USBD_LL_CloseEP>
 8002900:	63a5      	str	r5, [r4, #56]	; 0x38
 8002902:	2101      	movs	r1, #1
 8002904:	4620      	mov	r0, r4
 8002906:	f000 fe6a 	bl	80035de <USBD_LL_CloseEP>
 800290a:	f8d4 32d4 	ldr.w	r3, [r4, #724]	; 0x2d4
 800290e:	f8c4 5178 	str.w	r5, [r4, #376]	; 0x178
 8002912:	eb04 0383 	add.w	r3, r4, r3, lsl #2
 8002916:	f8d3 22c0 	ldr.w	r2, [r3, #704]	; 0x2c0
 800291a:	b18a      	cbz	r2, 8002940 <USBD_CUSTOM_HID_DeInit+0x4c>
 800291c:	f8d3 32c4 	ldr.w	r3, [r3, #708]	; 0x2c4
 8002920:	689b      	ldr	r3, [r3, #8]
 8002922:	4798      	blx	r3
 8002924:	f8d4 32d4 	ldr.w	r3, [r4, #724]	; 0x2d4
 8002928:	33b0      	adds	r3, #176	; 0xb0
 800292a:	f854 0023 	ldr.w	r0, [r4, r3, lsl #2]
 800292e:	f000 fe37 	bl	80035a0 <USBD_static_free>
 8002932:	f8d4 32d4 	ldr.w	r3, [r4, #724]	; 0x2d4
 8002936:	33b0      	adds	r3, #176	; 0xb0
 8002938:	f844 5023 	str.w	r5, [r4, r3, lsl #2]
 800293c:	f8c4 52bc 	str.w	r5, [r4, #700]	; 0x2bc
 8002940:	2000      	movs	r0, #0
 8002942:	bd38      	pop	{r3, r4, r5, pc}

08002944 <USBD_CUSTOM_HID_Init>:
 8002944:	b5f8      	push	{r3, r4, r5, r6, r7, lr}
 8002946:	4604      	mov	r4, r0
 8002948:	2054      	movs	r0, #84	; 0x54
 800294a:	f000 fe25 	bl	8003598 <USBD_static_malloc>
 800294e:	f8d4 32d4 	ldr.w	r3, [r4, #724]	; 0x2d4
 8002952:	33b0      	adds	r3, #176	; 0xb0
 8002954:	4605      	mov	r5, r0
 8002956:	f844 0023 	str.w	r0, [r4, r3, lsl #2]
 800295a:	b908      	cbnz	r0, 8002960 <USBD_CUSTOM_HID_Init+0x1c>
 800295c:	2002      	movs	r0, #2
 800295e:	bdf8      	pop	{r3, r4, r5, r6, r7, pc}
 8002960:	2305      	movs	r3, #5
 8002962:	2701      	movs	r7, #1
 8002964:	f8c4 02bc 	str.w	r0, [r4, #700]	; 0x2bc
 8002968:	8763      	strh	r3, [r4, #58]	; 0x3a
 800296a:	f8a4 317a 	strh.w	r3, [r4, #378]	; 0x17a
 800296e:	2203      	movs	r2, #3
 8002970:	2302      	movs	r3, #2
 8002972:	2181      	movs	r1, #129	; 0x81
 8002974:	4620      	mov	r0, r4
 8002976:	f000 fe26 	bl	80035c6 <USBD_LL_OpenEP>
 800297a:	2600      	movs	r6, #0
 800297c:	2203      	movs	r2, #3
 800297e:	4639      	mov	r1, r7
 8002980:	2302      	movs	r3, #2
 8002982:	8727      	strh	r7, [r4, #56]	; 0x38
 8002984:	4620      	mov	r0, r4
 8002986:	f000 fe1e 	bl	80035c6 <USBD_LL_OpenEP>
 800298a:	f8a4 7178 	strh.w	r7, [r4, #376]	; 0x178
 800298e:	f885 6050 	strb.w	r6, [r5, #80]	; 0x50
 8002992:	f8d4 32d4 	ldr.w	r3, [r4, #724]	; 0x2d4
 8002996:	eb04 0383 	add.w	r3, r4, r3, lsl #2
 800299a:	f8d3 32c4 	ldr.w	r3, [r3, #708]	; 0x2c4
 800299e:	685b      	ldr	r3, [r3, #4]
 80029a0:	4798      	blx	r3
 80029a2:	2340      	movs	r3, #64	; 0x40
 80029a4:	462a      	mov	r2, r5
 80029a6:	4639      	mov	r1, r7
 80029a8:	4620      	mov	r0, r4
 80029aa:	f000 fe45 	bl	8003638 <USBD_LL_PrepareReceive>
 80029ae:	4630      	mov	r0, r6
 80029b0:	e7d5      	b.n	800295e <USBD_CUSTOM_HID_Init+0x1a>

080029b2 <USBD_CUSTOM_HID_ReceivePacket>:
 80029b2:	f8d0 22d4 	ldr.w	r2, [r0, #724]	; 0x2d4
 80029b6:	32b0      	adds	r2, #176	; 0xb0
 80029b8:	b508      	push	{r3, lr}
 80029ba:	f850 2022 	ldr.w	r2, [r0, r2, lsl #2]
 80029be:	b12a      	cbz	r2, 80029cc <USBD_CUSTOM_HID_ReceivePacket+0x1a>
 80029c0:	2340      	movs	r3, #64	; 0x40
 80029c2:	2101      	movs	r1, #1
 80029c4:	f000 fe38 	bl	8003638 <USBD_LL_PrepareReceive>
 80029c8:	2000      	movs	r0, #0
 80029ca:	bd08      	pop	{r3, pc}
 80029cc:	2003      	movs	r0, #3
 80029ce:	e7fc      	b.n	80029ca <USBD_CUSTOM_HID_ReceivePacket+0x18>

080029d0 <USBD_CUSTOM_HID_RegisterInterface>:
 80029d0:	b139      	cbz	r1, 80029e2 <USBD_CUSTOM_HID_RegisterInterface+0x12>
 80029d2:	f8d0 32d4 	ldr.w	r3, [r0, #724]	; 0x2d4
 80029d6:	eb00 0083 	add.w	r0, r0, r3, lsl #2
 80029da:	f8c0 12c4 	str.w	r1, [r0, #708]	; 0x2c4
 80029de:	2000      	movs	r0, #0
 80029e0:	4770      	bx	lr
 80029e2:	2003      	movs	r0, #3
 80029e4:	4770      	bx	lr

080029e6 <USBD_Init>:
 80029e6:	b178      	cbz	r0, 8002a08 <USBD_Init+0x22>
 80029e8:	2300      	movs	r3, #0
 80029ea:	f8c0 32b8 	str.w	r3, [r0, #696]	; 0x2b8
 80029ee:	f8c0 32c4 	str.w	r3, [r0, #708]	; 0x2c4
 80029f2:	f8c0 32d0 	str.w	r3, [r0, #720]	; 0x2d0
 80029f6:	b109      	cbz	r1, 80029fc <USBD_Init+0x16>
 80029f8:	f8c0 12b4 	str.w	r1, [r0, #692]	; 0x2b4
 80029fc:	2301      	movs	r3, #1
 80029fe:	f880 329c 	strb.w	r3, [r0, #668]	; 0x29c
 8002a02:	7002      	strb	r2, [r0, #0]
 8002a04:	f000 bd88 	b.w	8003518 <USBD_LL_Init>
 8002a08:	2003      	movs	r0, #3
 8002a0a:	4770      	bx	lr

08002a0c <USBD_RegisterClass>:
 8002a0c:	b513      	push	{r0, r1, r4, lr}
 8002a0e:	2300      	movs	r3, #0
 8002a10:	4604      	mov	r4, r0
 8002a12:	f8ad 3006 	strh.w	r3, [sp, #6]
 8002a16:	b181      	cbz	r1, 8002a3a <USBD_RegisterClass+0x2e>
 8002a18:	6acb      	ldr	r3, [r1, #44]	; 0x2c
 8002a1a:	f8c0 12b8 	str.w	r1, [r0, #696]	; 0x2b8
 8002a1e:	b123      	cbz	r3, 8002a2a <USBD_RegisterClass+0x1e>
 8002a20:	f10d 0006 	add.w	r0, sp, #6
 8002a24:	4798      	blx	r3
 8002a26:	f8c4 02d0 	str.w	r0, [r4, #720]	; 0x2d0
 8002a2a:	f8d4 32d8 	ldr.w	r3, [r4, #728]	; 0x2d8
 8002a2e:	3301      	adds	r3, #1
 8002a30:	f8c4 32d8 	str.w	r3, [r4, #728]	; 0x2d8
 8002a34:	2000      	movs	r0, #0
 8002a36:	b002      	add	sp, #8
 8002a38:	bd10      	pop	{r4, pc}
 8002a3a:	2003      	movs	r0, #3
 8002a3c:	e7fb      	b.n	8002a36 <USBD_RegisterClass+0x2a>

08002a3e <USBD_Start>:
 8002a3e:	f000 bdb9 	b.w	80035b4 <USBD_LL_Start>

08002a42 <USBD_SetClassConfig>:
 8002a42:	f8d0 32b8 	ldr.w	r3, [r0, #696]	; 0x2b8
 8002a46:	b10b      	cbz	r3, 8002a4c <USBD_SetClassConfig+0xa>
 8002a48:	681b      	ldr	r3, [r3, #0]
 8002a4a:	4718      	bx	r3
 8002a4c:	4618      	mov	r0, r3
 8002a4e:	4770      	bx	lr

08002a50 <USBD_ClrClassConfig>:
 8002a50:	b508      	push	{r3, lr}
 8002a52:	f8d0 32b8 	ldr.w	r3, [r0, #696]	; 0x2b8
 8002a56:	685b      	ldr	r3, [r3, #4]
 8002a58:	4798      	blx	r3
 8002a5a:	2800      	cmp	r0, #0
 8002a5c:	bf18      	it	ne
 8002a5e:	2003      	movne	r0, #3
 8002a60:	bd08      	pop	{r3, pc}

08002a62 <USBD_LL_SetupStage>:
 8002a62:	b538      	push	{r3, r4, r5, lr}
 8002a64:	4604      	mov	r4, r0
 8002a66:	f200 25aa 	addw	r5, r0, #682	; 0x2aa
 8002a6a:	4628      	mov	r0, r5
 8002a6c:	f000 fb87 	bl	800317e <USBD_ParseSetupRequest>
 8002a70:	2301      	movs	r3, #1
 8002a72:	f894 12aa 	ldrb.w	r1, [r4, #682]	; 0x2aa
 8002a76:	f8c4 3294 	str.w	r3, [r4, #660]	; 0x294
 8002a7a:	f8b4 32b0 	ldrh.w	r3, [r4, #688]	; 0x2b0
 8002a7e:	f8c4 3298 	str.w	r3, [r4, #664]	; 0x298
 8002a82:	f001 031f 	and.w	r3, r1, #31
 8002a86:	2b01      	cmp	r3, #1
 8002a88:	d008      	beq.n	8002a9c <USBD_LL_SetupStage+0x3a>
 8002a8a:	2b02      	cmp	r3, #2
 8002a8c:	d00c      	beq.n	8002aa8 <USBD_LL_SetupStage+0x46>
 8002a8e:	b98b      	cbnz	r3, 8002ab4 <USBD_LL_SetupStage+0x52>
 8002a90:	4629      	mov	r1, r5
 8002a92:	4620      	mov	r0, r4
 8002a94:	e8bd 4038 	ldmia.w	sp!, {r3, r4, r5, lr}
 8002a98:	f000 b952 	b.w	8002d40 <USBD_StdDevReq>
 8002a9c:	4629      	mov	r1, r5
 8002a9e:	4620      	mov	r0, r4
 8002aa0:	e8bd 4038 	ldmia.w	sp!, {r3, r4, r5, lr}
 8002aa4:	f000 baa0 	b.w	8002fe8 <USBD_StdItfReq>
 8002aa8:	4629      	mov	r1, r5
 8002aaa:	4620      	mov	r0, r4
 8002aac:	e8bd 4038 	ldmia.w	sp!, {r3, r4, r5, lr}
 8002ab0:	f000 bac9 	b.w	8003046 <USBD_StdEPReq>
 8002ab4:	4620      	mov	r0, r4
 8002ab6:	f001 0180 	and.w	r1, r1, #128	; 0x80
 8002aba:	e8bd 4038 	ldmia.w	sp!, {r3, r4, r5, lr}
 8002abe:	f000 bd97 	b.w	80035f0 <USBD_LL_StallEP>

08002ac2 <USBD_LL_DataOutStage>:
 8002ac2:	b570      	push	{r4, r5, r6, lr}
 8002ac4:	4604      	mov	r4, r0
 8002ac6:	4616      	mov	r6, r2
 8002ac8:	bb09      	cbnz	r1, 8002b0e <USBD_LL_DataOutStage+0x4c>
 8002aca:	f8d0 3294 	ldr.w	r3, [r0, #660]	; 0x294
 8002ace:	2b03      	cmp	r3, #3
 8002ad0:	d10c      	bne.n	8002aec <USBD_LL_DataOutStage+0x2a>
 8002ad2:	e9d0 3257 	ldrd	r3, r2, [r0, #348]	; 0x15c
 8002ad6:	4293      	cmp	r3, r2
 8002ad8:	d90a      	bls.n	8002af0 <USBD_LL_DataOutStage+0x2e>
 8002ada:	1a9b      	subs	r3, r3, r2
 8002adc:	429a      	cmp	r2, r3
 8002ade:	f8c0 315c 	str.w	r3, [r0, #348]	; 0x15c
 8002ae2:	bf28      	it	cs
 8002ae4:	461a      	movcs	r2, r3
 8002ae6:	4631      	mov	r1, r6
 8002ae8:	f000 fb9d 	bl	8003226 <USBD_CtlContinueRx>
 8002aec:	2000      	movs	r0, #0
 8002aee:	bd70      	pop	{r4, r5, r6, pc}
 8002af0:	f890 329c 	ldrb.w	r3, [r0, #668]	; 0x29c
 8002af4:	2b03      	cmp	r3, #3
 8002af6:	d106      	bne.n	8002b06 <USBD_LL_DataOutStage+0x44>
 8002af8:	f8d0 32b8 	ldr.w	r3, [r0, #696]	; 0x2b8
 8002afc:	691b      	ldr	r3, [r3, #16]
 8002afe:	b113      	cbz	r3, 8002b06 <USBD_LL_DataOutStage+0x44>
 8002b00:	f8c0 12d4 	str.w	r1, [r0, #724]	; 0x2d4
 8002b04:	4798      	blx	r3
 8002b06:	4620      	mov	r0, r4
 8002b08:	f000 fb95 	bl	8003236 <USBD_CtlSendStatus>
 8002b0c:	e7ee      	b.n	8002aec <USBD_LL_DataOutStage+0x2a>
 8002b0e:	f890 329c 	ldrb.w	r3, [r0, #668]	; 0x29c
 8002b12:	2b03      	cmp	r3, #3
 8002b14:	d1ea      	bne.n	8002aec <USBD_LL_DataOutStage+0x2a>
 8002b16:	f8d0 32b8 	ldr.w	r3, [r0, #696]	; 0x2b8
 8002b1a:	699b      	ldr	r3, [r3, #24]
 8002b1c:	2b00      	cmp	r3, #0
 8002b1e:	d0e5      	beq.n	8002aec <USBD_LL_DataOutStage+0x2a>
 8002b20:	2200      	movs	r2, #0
 8002b22:	e8bd 4070 	ldmia.w	sp!, {r4, r5, r6, lr}
 8002b26:	f8c0 22d4 	str.w	r2, [r0, #724]	; 0x2d4
 8002b2a:	4718      	bx	r3

08002b2c <USBD_LL_DataInStage>:
 8002b2c:	b573      	push	{r0, r1, r4, r5, r6, lr}
 8002b2e:	4604      	mov	r4, r0
 8002b30:	4616      	mov	r6, r2
 8002b32:	2900      	cmp	r1, #0
 8002b34:	d141      	bne.n	8002bba <USBD_LL_DataInStage+0x8e>
 8002b36:	f8d0 2294 	ldr.w	r2, [r0, #660]	; 0x294
 8002b3a:	2a02      	cmp	r2, #2
 8002b3c:	d10f      	bne.n	8002b5e <USBD_LL_DataInStage+0x32>
 8002b3e:	e9d0 5207 	ldrd	r5, r2, [r0, #28]
 8002b42:	4295      	cmp	r5, r2
 8002b44:	d914      	bls.n	8002b70 <USBD_LL_DataInStage+0x44>
 8002b46:	1aaa      	subs	r2, r5, r2
 8002b48:	9101      	str	r1, [sp, #4]
 8002b4a:	61c2      	str	r2, [r0, #28]
 8002b4c:	4631      	mov	r1, r6
 8002b4e:	f000 fb55 	bl	80031fc <USBD_CtlContinueSendData>
 8002b52:	9b01      	ldr	r3, [sp, #4]
 8002b54:	461a      	mov	r2, r3
 8002b56:	4619      	mov	r1, r3
 8002b58:	4620      	mov	r0, r4
 8002b5a:	f000 fd6d 	bl	8003638 <USBD_LL_PrepareReceive>
 8002b5e:	f894 32a0 	ldrb.w	r3, [r4, #672]	; 0x2a0
 8002b62:	b113      	cbz	r3, 8002b6a <USBD_LL_DataInStage+0x3e>
 8002b64:	2300      	movs	r3, #0
 8002b66:	f884 32a0 	strb.w	r3, [r4, #672]	; 0x2a0
 8002b6a:	2000      	movs	r0, #0
 8002b6c:	b002      	add	sp, #8
 8002b6e:	bd70      	pop	{r4, r5, r6, pc}
 8002b70:	d10e      	bne.n	8002b90 <USBD_LL_DataInStage+0x64>
 8002b72:	6982      	ldr	r2, [r0, #24]
 8002b74:	4295      	cmp	r5, r2
 8002b76:	d80b      	bhi.n	8002b90 <USBD_LL_DataInStage+0x64>
 8002b78:	f8d0 5298 	ldr.w	r5, [r0, #664]	; 0x298
 8002b7c:	42aa      	cmp	r2, r5
 8002b7e:	d207      	bcs.n	8002b90 <USBD_LL_DataInStage+0x64>
 8002b80:	460a      	mov	r2, r1
 8002b82:	9101      	str	r1, [sp, #4]
 8002b84:	f000 fb3a 	bl	80031fc <USBD_CtlContinueSendData>
 8002b88:	9b01      	ldr	r3, [sp, #4]
 8002b8a:	f8c4 3298 	str.w	r3, [r4, #664]	; 0x298
 8002b8e:	e7e1      	b.n	8002b54 <USBD_LL_DataInStage+0x28>
 8002b90:	f894 329c 	ldrb.w	r3, [r4, #668]	; 0x29c
 8002b94:	2b03      	cmp	r3, #3
 8002b96:	d108      	bne.n	8002baa <USBD_LL_DataInStage+0x7e>
 8002b98:	f8d4 32b8 	ldr.w	r3, [r4, #696]	; 0x2b8
 8002b9c:	68db      	ldr	r3, [r3, #12]
 8002b9e:	b123      	cbz	r3, 8002baa <USBD_LL_DataInStage+0x7e>
 8002ba0:	2200      	movs	r2, #0
 8002ba2:	f8c4 22d4 	str.w	r2, [r4, #724]	; 0x2d4
 8002ba6:	4620      	mov	r0, r4
 8002ba8:	4798      	blx	r3
 8002baa:	2180      	movs	r1, #128	; 0x80
 8002bac:	4620      	mov	r0, r4
 8002bae:	f000 fd1f 	bl	80035f0 <USBD_LL_StallEP>
 8002bb2:	4620      	mov	r0, r4
 8002bb4:	f000 fb4a 	bl	800324c <USBD_CtlReceiveStatus>
 8002bb8:	e7d1      	b.n	8002b5e <USBD_LL_DataInStage+0x32>
 8002bba:	f890 329c 	ldrb.w	r3, [r0, #668]	; 0x29c
 8002bbe:	2b03      	cmp	r3, #3
 8002bc0:	d1d3      	bne.n	8002b6a <USBD_LL_DataInStage+0x3e>
 8002bc2:	f8d0 32b8 	ldr.w	r3, [r0, #696]	; 0x2b8
 8002bc6:	695b      	ldr	r3, [r3, #20]
 8002bc8:	2b00      	cmp	r3, #0
 8002bca:	d0ce      	beq.n	8002b6a <USBD_LL_DataInStage+0x3e>
 8002bcc:	2200      	movs	r2, #0
 8002bce:	f8c0 22d4 	str.w	r2, [r0, #724]	; 0x2d4
 8002bd2:	b002      	add	sp, #8
 8002bd4:	e8bd 4070 	ldmia.w	sp!, {r4, r5, r6, lr}
 8002bd8:	4718      	bx	r3

08002bda <USBD_LL_Reset>:
 8002bda:	b5f8      	push	{r3, r4, r5, r6, r7, lr}
 8002bdc:	2301      	movs	r3, #1
 8002bde:	f880 329c 	strb.w	r3, [r0, #668]	; 0x29c
 8002be2:	f8d0 32b8 	ldr.w	r3, [r0, #696]	; 0x2b8
 8002be6:	2100      	movs	r1, #0
 8002be8:	4604      	mov	r4, r0
 8002bea:	f8c0 1294 	str.w	r1, [r0, #660]	; 0x294
 8002bee:	6041      	str	r1, [r0, #4]
 8002bf0:	f8c0 12a4 	str.w	r1, [r0, #676]	; 0x2a4
 8002bf4:	f880 12a0 	strb.w	r1, [r0, #672]	; 0x2a0
 8002bf8:	b9b3      	cbnz	r3, 8002c28 <USBD_LL_Reset+0x4e>
 8002bfa:	2600      	movs	r6, #0
 8002bfc:	2200      	movs	r2, #0
 8002bfe:	2540      	movs	r5, #64	; 0x40
 8002c00:	4611      	mov	r1, r2
 8002c02:	2701      	movs	r7, #1
 8002c04:	2340      	movs	r3, #64	; 0x40
 8002c06:	4620      	mov	r0, r4
 8002c08:	f000 fcdd 	bl	80035c6 <USBD_LL_OpenEP>
 8002c0c:	f8a4 7164 	strh.w	r7, [r4, #356]	; 0x164
 8002c10:	f8c4 5160 	str.w	r5, [r4, #352]	; 0x160
 8002c14:	462b      	mov	r3, r5
 8002c16:	2200      	movs	r2, #0
 8002c18:	2180      	movs	r1, #128	; 0x80
 8002c1a:	4620      	mov	r0, r4
 8002c1c:	f000 fcd3 	bl	80035c6 <USBD_LL_OpenEP>
 8002c20:	84a7      	strh	r7, [r4, #36]	; 0x24
 8002c22:	6225      	str	r5, [r4, #32]
 8002c24:	4630      	mov	r0, r6
 8002c26:	bdf8      	pop	{r3, r4, r5, r6, r7, pc}
 8002c28:	685b      	ldr	r3, [r3, #4]
 8002c2a:	2b00      	cmp	r3, #0
 8002c2c:	d0e5      	beq.n	8002bfa <USBD_LL_Reset+0x20>
 8002c2e:	4798      	blx	r3
 8002c30:	2800      	cmp	r0, #0
 8002c32:	d0e2      	beq.n	8002bfa <USBD_LL_Reset+0x20>
 8002c34:	2603      	movs	r6, #3
 8002c36:	e7e1      	b.n	8002bfc <USBD_LL_Reset+0x22>

08002c38 <USBD_LL_SetSpeed>:
 8002c38:	7401      	strb	r1, [r0, #16]
 8002c3a:	2000      	movs	r0, #0
 8002c3c:	4770      	bx	lr

08002c3e <USBD_LL_Suspend>:
 8002c3e:	f890 329c 	ldrb.w	r3, [r0, #668]	; 0x29c
 8002c42:	2b04      	cmp	r3, #4
 8002c44:	bf1e      	ittt	ne
 8002c46:	f890 329c 	ldrbne.w	r3, [r0, #668]	; 0x29c
 8002c4a:	b2db      	uxtbne	r3, r3
 8002c4c:	f880 329d 	strbne.w	r3, [r0, #669]	; 0x29d
 8002c50:	2304      	movs	r3, #4
 8002c52:	f880 329c 	strb.w	r3, [r0, #668]	; 0x29c
 8002c56:	2000      	movs	r0, #0
 8002c58:	4770      	bx	lr

08002c5a <USBD_LL_Resume>:
 8002c5a:	f890 329c 	ldrb.w	r3, [r0, #668]	; 0x29c
 8002c5e:	2b04      	cmp	r3, #4
 8002c60:	bf02      	ittt	eq
 8002c62:	f890 329d 	ldrbeq.w	r3, [r0, #669]	; 0x29d
 8002c66:	b2db      	uxtbeq	r3, r3
 8002c68:	f880 329c 	strbeq.w	r3, [r0, #668]	; 0x29c
 8002c6c:	2000      	movs	r0, #0
 8002c6e:	4770      	bx	lr

08002c70 <USBD_LL_SOF>:
 8002c70:	b508      	push	{r3, lr}
 8002c72:	f890 229c 	ldrb.w	r2, [r0, #668]	; 0x29c
 8002c76:	2a03      	cmp	r2, #3
 8002c78:	d105      	bne.n	8002c86 <USBD_LL_SOF+0x16>
 8002c7a:	f8d0 32b8 	ldr.w	r3, [r0, #696]	; 0x2b8
 8002c7e:	b113      	cbz	r3, 8002c86 <USBD_LL_SOF+0x16>
 8002c80:	69db      	ldr	r3, [r3, #28]
 8002c82:	b103      	cbz	r3, 8002c86 <USBD_LL_SOF+0x16>
 8002c84:	4798      	blx	r3
 8002c86:	2000      	movs	r0, #0
 8002c88:	bd08      	pop	{r3, pc}

08002c8a <USBD_LL_IsoINIncomplete>:
 8002c8a:	f8d0 22d4 	ldr.w	r2, [r0, #724]	; 0x2d4
 8002c8e:	32ae      	adds	r2, #174	; 0xae
 8002c90:	b508      	push	{r3, lr}
 8002c92:	f850 2022 	ldr.w	r2, [r0, r2, lsl #2]
 8002c96:	b142      	cbz	r2, 8002caa <USBD_LL_IsoINIncomplete+0x20>
 8002c98:	f890 329c 	ldrb.w	r3, [r0, #668]	; 0x29c
 8002c9c:	2b03      	cmp	r3, #3
 8002c9e:	d102      	bne.n	8002ca6 <USBD_LL_IsoINIncomplete+0x1c>
 8002ca0:	6a13      	ldr	r3, [r2, #32]
 8002ca2:	b123      	cbz	r3, 8002cae <USBD_LL_IsoINIncomplete+0x24>
 8002ca4:	4798      	blx	r3
 8002ca6:	2000      	movs	r0, #0
 8002ca8:	e000      	b.n	8002cac <USBD_LL_IsoINIncomplete+0x22>
 8002caa:	2003      	movs	r0, #3
 8002cac:	bd08      	pop	{r3, pc}
 8002cae:	4618      	mov	r0, r3
 8002cb0:	e7fc      	b.n	8002cac <USBD_LL_IsoINIncomplete+0x22>

08002cb2 <USBD_LL_IsoOUTIncomplete>:
 8002cb2:	f8d0 22d4 	ldr.w	r2, [r0, #724]	; 0x2d4
 8002cb6:	32ae      	adds	r2, #174	; 0xae
 8002cb8:	b508      	push	{r3, lr}
 8002cba:	f850 2022 	ldr.w	r2, [r0, r2, lsl #2]
 8002cbe:	b142      	cbz	r2, 8002cd2 <USBD_LL_IsoOUTIncomplete+0x20>
 8002cc0:	f890 329c 	ldrb.w	r3, [r0, #668]	; 0x29c
 8002cc4:	2b03      	cmp	r3, #3
 8002cc6:	d102      	bne.n	8002cce <USBD_LL_IsoOUTIncomplete+0x1c>
 8002cc8:	6a53      	ldr	r3, [r2, #36]	; 0x24
 8002cca:	b123      	cbz	r3, 8002cd6 <USBD_LL_IsoOUTIncomplete+0x24>
 8002ccc:	4798      	blx	r3
 8002cce:	2000      	movs	r0, #0
 8002cd0:	e000      	b.n	8002cd4 <USBD_LL_IsoOUTIncomplete+0x22>
 8002cd2:	2003      	movs	r0, #3
 8002cd4:	bd08      	pop	{r3, pc}
 8002cd6:	4618      	mov	r0, r3
 8002cd8:	e7fc      	b.n	8002cd4 <USBD_LL_IsoOUTIncomplete+0x22>

08002cda <USBD_LL_DevConnected>:
 8002cda:	2000      	movs	r0, #0
 8002cdc:	4770      	bx	lr

08002cde <USBD_LL_DevDisconnected>:
 8002cde:	2201      	movs	r2, #1
 8002ce0:	b508      	push	{r3, lr}
 8002ce2:	f880 229c 	strb.w	r2, [r0, #668]	; 0x29c
 8002ce6:	f8d0 22b8 	ldr.w	r2, [r0, #696]	; 0x2b8
 8002cea:	b90a      	cbnz	r2, 8002cf0 <USBD_LL_DevDisconnected+0x12>
 8002cec:	2000      	movs	r0, #0
 8002cee:	bd08      	pop	{r3, pc}
 8002cf0:	6852      	ldr	r2, [r2, #4]
 8002cf2:	7901      	ldrb	r1, [r0, #4]
 8002cf4:	4790      	blx	r2
 8002cf6:	2800      	cmp	r0, #0
 8002cf8:	d0f8      	beq.n	8002cec <USBD_LL_DevDisconnected+0xe>
 8002cfa:	2003      	movs	r0, #3
 8002cfc:	e7f7      	b.n	8002cee <USBD_LL_DevDisconnected+0x10>

08002cfe <USBD_CoreFindIF>:
 8002cfe:	2000      	movs	r0, #0
 8002d00:	4770      	bx	lr

08002d02 <USBD_CoreFindEP>:
 8002d02:	2000      	movs	r0, #0
 8002d04:	4770      	bx	lr

08002d06 <USBD_GetEpDesc>:
 8002d06:	b510      	push	{r4, lr}
 8002d08:	8842      	ldrh	r2, [r0, #2]
 8002d0a:	7803      	ldrb	r3, [r0, #0]
 8002d0c:	429a      	cmp	r2, r3
 8002d0e:	d90a      	bls.n	8002d26 <USBD_GetEpDesc+0x20>
 8002d10:	7804      	ldrb	r4, [r0, #0]
 8002d12:	4420      	add	r0, r4
 8002d14:	4423      	add	r3, r4
 8002d16:	7844      	ldrb	r4, [r0, #1]
 8002d18:	2c05      	cmp	r4, #5
 8002d1a:	b29b      	uxth	r3, r3
 8002d1c:	d1f6      	bne.n	8002d0c <USBD_GetEpDesc+0x6>
 8002d1e:	7884      	ldrb	r4, [r0, #2]
 8002d20:	428c      	cmp	r4, r1
 8002d22:	d1f3      	bne.n	8002d0c <USBD_GetEpDesc+0x6>
 8002d24:	bd10      	pop	{r4, pc}
 8002d26:	2000      	movs	r0, #0
 8002d28:	e7fc      	b.n	8002d24 <USBD_GetEpDesc+0x1e>

08002d2a <USBD_CtlError.constprop.0>:
 8002d2a:	b510      	push	{r4, lr}
 8002d2c:	2180      	movs	r1, #128	; 0x80
 8002d2e:	4604      	mov	r4, r0
 8002d30:	f000 fc5e 	bl	80035f0 <USBD_LL_StallEP>
 8002d34:	4620      	mov	r0, r4
 8002d36:	2100      	movs	r1, #0
 8002d38:	e8bd 4010 	ldmia.w	sp!, {r4, lr}
 8002d3c:	f000 bc58 	b.w	80035f0 <USBD_LL_StallEP>

08002d40 <USBD_StdDevReq>:
 8002d40:	e92d 41f3 	stmdb	sp!, {r0, r1, r4, r5, r6, r7, r8, lr}
 8002d44:	780d      	ldrb	r5, [r1, #0]
 8002d46:	f005 0560 	and.w	r5, r5, #96	; 0x60
 8002d4a:	2d20      	cmp	r5, #32
 8002d4c:	4604      	mov	r4, r0
 8002d4e:	460e      	mov	r6, r1
 8002d50:	d014      	beq.n	8002d7c <USBD_StdDevReq+0x3c>
 8002d52:	2d40      	cmp	r5, #64	; 0x40
 8002d54:	d012      	beq.n	8002d7c <USBD_StdDevReq+0x3c>
 8002d56:	2d00      	cmp	r5, #0
 8002d58:	f040 810a 	bne.w	8002f70 <USBD_StdDevReq+0x230>
 8002d5c:	784f      	ldrb	r7, [r1, #1]
 8002d5e:	2f09      	cmp	r7, #9
 8002d60:	f200 8106 	bhi.w	8002f70 <USBD_StdDevReq+0x230>
 8002d64:	e8df f017 	tbh	[pc, r7, lsl #1]
 8002d68:	0132010b 	.word	0x0132010b
 8002d6c:	01210104 	.word	0x01210104
 8002d70:	00860104 	.word	0x00860104
 8002d74:	01040016 	.word	0x01040016
 8002d78:	00a200f3 	.word	0x00a200f3
 8002d7c:	f8d4 32d4 	ldr.w	r3, [r4, #724]	; 0x2d4
 8002d80:	33ae      	adds	r3, #174	; 0xae
 8002d82:	4631      	mov	r1, r6
 8002d84:	f854 3023 	ldr.w	r3, [r4, r3, lsl #2]
 8002d88:	689b      	ldr	r3, [r3, #8]
 8002d8a:	4620      	mov	r0, r4
 8002d8c:	b002      	add	sp, #8
 8002d8e:	e8bd 41f0 	ldmia.w	sp!, {r4, r5, r6, r7, r8, lr}
 8002d92:	4718      	bx	r3
 8002d94:	2300      	movs	r3, #0
 8002d96:	f8ad 3006 	strh.w	r3, [sp, #6]
 8002d9a:	884b      	ldrh	r3, [r1, #2]
 8002d9c:	0a1a      	lsrs	r2, r3, #8
 8002d9e:	3a01      	subs	r2, #1
 8002da0:	2a06      	cmp	r2, #6
 8002da2:	d837      	bhi.n	8002e14 <USBD_StdDevReq+0xd4>
 8002da4:	e8df f002 	tbb	[pc, r2]
 8002da8:	36291c04 	.word	0x36291c04
 8002dac:	5136      	.short	0x5136
 8002dae:	5b          	.byte	0x5b
 8002daf:	00          	.byte	0x00
 8002db0:	f8d0 32b4 	ldr.w	r3, [r0, #692]	; 0x2b4
 8002db4:	681b      	ldr	r3, [r3, #0]
 8002db6:	7c20      	ldrb	r0, [r4, #16]
 8002db8:	f10d 0106 	add.w	r1, sp, #6
 8002dbc:	4798      	blx	r3
 8002dbe:	88f2      	ldrh	r2, [r6, #6]
 8002dc0:	2a00      	cmp	r2, #0
 8002dc2:	f000 80ff 	beq.w	8002fc4 <USBD_StdDevReq+0x284>
 8002dc6:	f8bd 3006 	ldrh.w	r3, [sp, #6]
 8002dca:	b31b      	cbz	r3, 8002e14 <USBD_StdDevReq+0xd4>
 8002dcc:	429a      	cmp	r2, r3
 8002dce:	bf28      	it	cs
 8002dd0:	461a      	movcs	r2, r3
 8002dd2:	f8ad 2006 	strh.w	r2, [sp, #6]
 8002dd6:	4601      	mov	r1, r0
 8002dd8:	4620      	mov	r0, r4
 8002dda:	f000 fa02 	bl	80031e2 <USBD_CtlSendData>
 8002dde:	e01c      	b.n	8002e1a <USBD_StdDevReq+0xda>
 8002de0:	7c02      	ldrb	r2, [r0, #16]
 8002de2:	f8d0 32b8 	ldr.w	r3, [r0, #696]	; 0x2b8
 8002de6:	b932      	cbnz	r2, 8002df6 <USBD_StdDevReq+0xb6>
 8002de8:	6a9b      	ldr	r3, [r3, #40]	; 0x28
 8002dea:	f10d 0006 	add.w	r0, sp, #6
 8002dee:	4798      	blx	r3
 8002df0:	2302      	movs	r3, #2
 8002df2:	7043      	strb	r3, [r0, #1]
 8002df4:	e7e3      	b.n	8002dbe <USBD_StdDevReq+0x7e>
 8002df6:	6adb      	ldr	r3, [r3, #44]	; 0x2c
 8002df8:	e7f7      	b.n	8002dea <USBD_StdDevReq+0xaa>
 8002dfa:	b2db      	uxtb	r3, r3
 8002dfc:	2b05      	cmp	r3, #5
 8002dfe:	d809      	bhi.n	8002e14 <USBD_StdDevReq+0xd4>
 8002e00:	e8df f003 	tbb	[pc, r3]
 8002e04:	17130f03 	.word	0x17130f03
 8002e08:	1f1b      	.short	0x1f1b
 8002e0a:	f8d0 32b4 	ldr.w	r3, [r0, #692]	; 0x2b4
 8002e0e:	685b      	ldr	r3, [r3, #4]
 8002e10:	2b00      	cmp	r3, #0
 8002e12:	d1d0      	bne.n	8002db6 <USBD_StdDevReq+0x76>
 8002e14:	4620      	mov	r0, r4
 8002e16:	f7ff ff88 	bl	8002d2a <USBD_CtlError.constprop.0>
 8002e1a:	4628      	mov	r0, r5
 8002e1c:	b002      	add	sp, #8
 8002e1e:	e8bd 81f0 	ldmia.w	sp!, {r4, r5, r6, r7, r8, pc}
 8002e22:	f8d0 32b4 	ldr.w	r3, [r0, #692]	; 0x2b4
 8002e26:	689b      	ldr	r3, [r3, #8]
 8002e28:	e7f2      	b.n	8002e10 <USBD_StdDevReq+0xd0>
 8002e2a:	f8d0 32b4 	ldr.w	r3, [r0, #692]	; 0x2b4
 8002e2e:	68db      	ldr	r3, [r3, #12]
 8002e30:	e7ee      	b.n	8002e10 <USBD_StdDevReq+0xd0>
 8002e32:	f8d0 32b4 	ldr.w	r3, [r0, #692]	; 0x2b4
 8002e36:	691b      	ldr	r3, [r3, #16]
 8002e38:	e7ea      	b.n	8002e10 <USBD_StdDevReq+0xd0>
 8002e3a:	f8d0 32b4 	ldr.w	r3, [r0, #692]	; 0x2b4
 8002e3e:	695b      	ldr	r3, [r3, #20]
 8002e40:	e7e6      	b.n	8002e10 <USBD_StdDevReq+0xd0>
 8002e42:	f8d0 32b4 	ldr.w	r3, [r0, #692]	; 0x2b4
 8002e46:	699b      	ldr	r3, [r3, #24]
 8002e48:	e7e2      	b.n	8002e10 <USBD_StdDevReq+0xd0>
 8002e4a:	7c03      	ldrb	r3, [r0, #16]
 8002e4c:	2b00      	cmp	r3, #0
 8002e4e:	d1e1      	bne.n	8002e14 <USBD_StdDevReq+0xd4>
 8002e50:	f8d0 32b8 	ldr.w	r3, [r0, #696]	; 0x2b8
 8002e54:	f10d 0006 	add.w	r0, sp, #6
 8002e58:	6b5b      	ldr	r3, [r3, #52]	; 0x34
 8002e5a:	4798      	blx	r3
 8002e5c:	e7af      	b.n	8002dbe <USBD_StdDevReq+0x7e>
 8002e5e:	7c03      	ldrb	r3, [r0, #16]
 8002e60:	2b00      	cmp	r3, #0
 8002e62:	d1d7      	bne.n	8002e14 <USBD_StdDevReq+0xd4>
 8002e64:	f8d0 32b8 	ldr.w	r3, [r0, #696]	; 0x2b8
 8002e68:	f10d 0006 	add.w	r0, sp, #6
 8002e6c:	6b1b      	ldr	r3, [r3, #48]	; 0x30
 8002e6e:	4798      	blx	r3
 8002e70:	2307      	movs	r3, #7
 8002e72:	e7be      	b.n	8002df2 <USBD_StdDevReq+0xb2>
 8002e74:	888b      	ldrh	r3, [r1, #4]
 8002e76:	2b00      	cmp	r3, #0
 8002e78:	d1cc      	bne.n	8002e14 <USBD_StdDevReq+0xd4>
 8002e7a:	88cb      	ldrh	r3, [r1, #6]
 8002e7c:	2b00      	cmp	r3, #0
 8002e7e:	d1c9      	bne.n	8002e14 <USBD_StdDevReq+0xd4>
 8002e80:	884e      	ldrh	r6, [r1, #2]
 8002e82:	2e7f      	cmp	r6, #127	; 0x7f
 8002e84:	d8c6      	bhi.n	8002e14 <USBD_StdDevReq+0xd4>
 8002e86:	f890 329c 	ldrb.w	r3, [r0, #668]	; 0x29c
 8002e8a:	2b03      	cmp	r3, #3
 8002e8c:	d0c2      	beq.n	8002e14 <USBD_StdDevReq+0xd4>
 8002e8e:	b2f1      	uxtb	r1, r6
 8002e90:	f880 129e 	strb.w	r1, [r0, #670]	; 0x29e
 8002e94:	f000 fbbe 	bl	8003614 <USBD_LL_SetUSBAddress>
 8002e98:	4620      	mov	r0, r4
 8002e9a:	f000 f9cc 	bl	8003236 <USBD_CtlSendStatus>
 8002e9e:	b11e      	cbz	r6, 8002ea8 <USBD_StdDevReq+0x168>
 8002ea0:	2302      	movs	r3, #2
 8002ea2:	f884 329c 	strb.w	r3, [r4, #668]	; 0x29c
 8002ea6:	e7b8      	b.n	8002e1a <USBD_StdDevReq+0xda>
 8002ea8:	2301      	movs	r3, #1
 8002eaa:	e7fa      	b.n	8002ea2 <USBD_StdDevReq+0x162>
 8002eac:	788e      	ldrb	r6, [r1, #2]
 8002eae:	4f4d      	ldr	r7, [pc, #308]	; (8002fe4 <USBD_StdDevReq+0x2a4>)
 8002eb0:	2e01      	cmp	r6, #1
 8002eb2:	703e      	strb	r6, [r7, #0]
 8002eb4:	d903      	bls.n	8002ebe <USBD_StdDevReq+0x17e>
 8002eb6:	f7ff ff38 	bl	8002d2a <USBD_CtlError.constprop.0>
 8002eba:	2503      	movs	r5, #3
 8002ebc:	e7ad      	b.n	8002e1a <USBD_StdDevReq+0xda>
 8002ebe:	f890 329c 	ldrb.w	r3, [r0, #668]	; 0x29c
 8002ec2:	2b02      	cmp	r3, #2
 8002ec4:	fa5f f883 	uxtb.w	r8, r3
 8002ec8:	d009      	beq.n	8002ede <USBD_StdDevReq+0x19e>
 8002eca:	f1b8 0f03 	cmp.w	r8, #3
 8002ece:	d018      	beq.n	8002f02 <USBD_StdDevReq+0x1c2>
 8002ed0:	f7ff ff2b 	bl	8002d2a <USBD_CtlError.constprop.0>
 8002ed4:	7839      	ldrb	r1, [r7, #0]
 8002ed6:	4620      	mov	r0, r4
 8002ed8:	f7ff fdba 	bl	8002a50 <USBD_ClrClassConfig>
 8002edc:	e7ed      	b.n	8002eba <USBD_StdDevReq+0x17a>
 8002ede:	2e00      	cmp	r6, #0
 8002ee0:	d070      	beq.n	8002fc4 <USBD_StdDevReq+0x284>
 8002ee2:	2101      	movs	r1, #1
 8002ee4:	6041      	str	r1, [r0, #4]
 8002ee6:	f7ff fdac 	bl	8002a42 <USBD_SetClassConfig>
 8002eea:	4605      	mov	r5, r0
 8002eec:	4620      	mov	r0, r4
 8002eee:	b125      	cbz	r5, 8002efa <USBD_StdDevReq+0x1ba>
 8002ef0:	f7ff ff1b 	bl	8002d2a <USBD_CtlError.constprop.0>
 8002ef4:	f884 829c 	strb.w	r8, [r4, #668]	; 0x29c
 8002ef8:	e78f      	b.n	8002e1a <USBD_StdDevReq+0xda>
 8002efa:	f000 f99c 	bl	8003236 <USBD_CtlSendStatus>
 8002efe:	2303      	movs	r3, #3
 8002f00:	e7cf      	b.n	8002ea2 <USBD_StdDevReq+0x162>
 8002f02:	b95e      	cbnz	r6, 8002f1c <USBD_StdDevReq+0x1dc>
 8002f04:	2302      	movs	r3, #2
 8002f06:	f880 329c 	strb.w	r3, [r0, #668]	; 0x29c
 8002f0a:	6046      	str	r6, [r0, #4]
 8002f0c:	4631      	mov	r1, r6
 8002f0e:	f7ff fd9f 	bl	8002a50 <USBD_ClrClassConfig>
 8002f12:	4620      	mov	r0, r4
 8002f14:	f000 f98f 	bl	8003236 <USBD_CtlSendStatus>
 8002f18:	4635      	mov	r5, r6
 8002f1a:	e77e      	b.n	8002e1a <USBD_StdDevReq+0xda>
 8002f1c:	6841      	ldr	r1, [r0, #4]
 8002f1e:	2901      	cmp	r1, #1
 8002f20:	d050      	beq.n	8002fc4 <USBD_StdDevReq+0x284>
 8002f22:	b2c9      	uxtb	r1, r1
 8002f24:	f7ff fd94 	bl	8002a50 <USBD_ClrClassConfig>
 8002f28:	7839      	ldrb	r1, [r7, #0]
 8002f2a:	6061      	str	r1, [r4, #4]
 8002f2c:	4620      	mov	r0, r4
 8002f2e:	f7ff fd88 	bl	8002a42 <USBD_SetClassConfig>
 8002f32:	4606      	mov	r6, r0
 8002f34:	2800      	cmp	r0, #0
 8002f36:	d045      	beq.n	8002fc4 <USBD_StdDevReq+0x284>
 8002f38:	4620      	mov	r0, r4
 8002f3a:	f7ff fef6 	bl	8002d2a <USBD_CtlError.constprop.0>
 8002f3e:	7921      	ldrb	r1, [r4, #4]
 8002f40:	4620      	mov	r0, r4
 8002f42:	f7ff fd85 	bl	8002a50 <USBD_ClrClassConfig>
 8002f46:	2302      	movs	r3, #2
 8002f48:	f884 329c 	strb.w	r3, [r4, #668]	; 0x29c
 8002f4c:	e7e4      	b.n	8002f18 <USBD_StdDevReq+0x1d8>
 8002f4e:	88ca      	ldrh	r2, [r1, #6]
 8002f50:	2a01      	cmp	r2, #1
 8002f52:	f47f af5f 	bne.w	8002e14 <USBD_StdDevReq+0xd4>
 8002f56:	f890 129c 	ldrb.w	r1, [r0, #668]	; 0x29c
 8002f5a:	2902      	cmp	r1, #2
 8002f5c:	b2cb      	uxtb	r3, r1
 8002f5e:	d805      	bhi.n	8002f6c <USBD_StdDevReq+0x22c>
 8002f60:	b133      	cbz	r3, 8002f70 <USBD_StdDevReq+0x230>
 8002f62:	4601      	mov	r1, r0
 8002f64:	2300      	movs	r3, #0
 8002f66:	f841 3f08 	str.w	r3, [r1, #8]!
 8002f6a:	e735      	b.n	8002dd8 <USBD_StdDevReq+0x98>
 8002f6c:	2b03      	cmp	r3, #3
 8002f6e:	d004      	beq.n	8002f7a <USBD_StdDevReq+0x23a>
 8002f70:	4620      	mov	r0, r4
 8002f72:	f7ff feda 	bl	8002d2a <USBD_CtlError.constprop.0>
 8002f76:	2500      	movs	r5, #0
 8002f78:	e74f      	b.n	8002e1a <USBD_StdDevReq+0xda>
 8002f7a:	1d01      	adds	r1, r0, #4
 8002f7c:	e72c      	b.n	8002dd8 <USBD_StdDevReq+0x98>
 8002f7e:	f890 329c 	ldrb.w	r3, [r0, #668]	; 0x29c
 8002f82:	3b01      	subs	r3, #1
 8002f84:	2b02      	cmp	r3, #2
 8002f86:	d8f3      	bhi.n	8002f70 <USBD_StdDevReq+0x230>
 8002f88:	88ca      	ldrh	r2, [r1, #6]
 8002f8a:	2a02      	cmp	r2, #2
 8002f8c:	f47f af42 	bne.w	8002e14 <USBD_StdDevReq+0xd4>
 8002f90:	f8d0 32a4 	ldr.w	r3, [r0, #676]	; 0x2a4
 8002f94:	3b00      	subs	r3, #0
 8002f96:	bf18      	it	ne
 8002f98:	2301      	movne	r3, #1
 8002f9a:	4601      	mov	r1, r0
 8002f9c:	005b      	lsls	r3, r3, #1
 8002f9e:	f841 3f0c 	str.w	r3, [r1, #12]!
 8002fa2:	f000 f91e 	bl	80031e2 <USBD_CtlSendData>
 8002fa6:	463d      	mov	r5, r7
 8002fa8:	e737      	b.n	8002e1a <USBD_StdDevReq+0xda>
 8002faa:	884b      	ldrh	r3, [r1, #2]
 8002fac:	2b01      	cmp	r3, #1
 8002fae:	d102      	bne.n	8002fb6 <USBD_StdDevReq+0x276>
 8002fb0:	f8c4 32a4 	str.w	r3, [r4, #676]	; 0x2a4
 8002fb4:	e006      	b.n	8002fc4 <USBD_StdDevReq+0x284>
 8002fb6:	2b02      	cmp	r3, #2
 8002fb8:	f47f af2c 	bne.w	8002e14 <USBD_StdDevReq+0xd4>
 8002fbc:	888b      	ldrh	r3, [r1, #4]
 8002fbe:	0a1b      	lsrs	r3, r3, #8
 8002fc0:	f880 32a0 	strb.w	r3, [r0, #672]	; 0x2a0
 8002fc4:	4620      	mov	r0, r4
 8002fc6:	f000 f936 	bl	8003236 <USBD_CtlSendStatus>
 8002fca:	e726      	b.n	8002e1a <USBD_StdDevReq+0xda>
 8002fcc:	f890 329c 	ldrb.w	r3, [r0, #668]	; 0x29c
 8002fd0:	3b01      	subs	r3, #1
 8002fd2:	2b02      	cmp	r3, #2
 8002fd4:	d8cc      	bhi.n	8002f70 <USBD_StdDevReq+0x230>
 8002fd6:	884b      	ldrh	r3, [r1, #2]
 8002fd8:	2b01      	cmp	r3, #1
 8002fda:	f47f af1e 	bne.w	8002e1a <USBD_StdDevReq+0xda>
 8002fde:	2300      	movs	r3, #0
 8002fe0:	e7e6      	b.n	8002fb0 <USBD_StdDevReq+0x270>
 8002fe2:	bf00      	nop
 8002fe4:	2000021c 	.word	0x2000021c

08002fe8 <USBD_StdItfReq>:
 8002fe8:	b570      	push	{r4, r5, r6, lr}
 8002fea:	780b      	ldrb	r3, [r1, #0]
 8002fec:	f003 0260 	and.w	r2, r3, #96	; 0x60
 8002ff0:	2a40      	cmp	r2, #64	; 0x40
 8002ff2:	4604      	mov	r4, r0
 8002ff4:	460e      	mov	r6, r1
 8002ff6:	d001      	beq.n	8002ffc <USBD_StdItfReq+0x14>
 8002ff8:	065b      	lsls	r3, r3, #25
 8002ffa:	d41f      	bmi.n	800303c <USBD_StdItfReq+0x54>
 8002ffc:	f894 329c 	ldrb.w	r3, [r4, #668]	; 0x29c
 8003000:	3b01      	subs	r3, #1
 8003002:	2b02      	cmp	r3, #2
 8003004:	d81a      	bhi.n	800303c <USBD_StdItfReq+0x54>
 8003006:	7931      	ldrb	r1, [r6, #4]
 8003008:	2901      	cmp	r1, #1
 800300a:	4620      	mov	r0, r4
 800300c:	d817      	bhi.n	800303e <USBD_StdItfReq+0x56>
 800300e:	f7ff fe76 	bl	8002cfe <USBD_CoreFindIF>
 8003012:	b988      	cbnz	r0, 8003038 <USBD_StdItfReq+0x50>
 8003014:	f8d4 32b8 	ldr.w	r3, [r4, #696]	; 0x2b8
 8003018:	689b      	ldr	r3, [r3, #8]
 800301a:	b16b      	cbz	r3, 8003038 <USBD_StdItfReq+0x50>
 800301c:	f8c4 02d4 	str.w	r0, [r4, #724]	; 0x2d4
 8003020:	4631      	mov	r1, r6
 8003022:	4620      	mov	r0, r4
 8003024:	4798      	blx	r3
 8003026:	4605      	mov	r5, r0
 8003028:	88f3      	ldrh	r3, [r6, #6]
 800302a:	b91b      	cbnz	r3, 8003034 <USBD_StdItfReq+0x4c>
 800302c:	b915      	cbnz	r5, 8003034 <USBD_StdItfReq+0x4c>
 800302e:	4620      	mov	r0, r4
 8003030:	f000 f901 	bl	8003236 <USBD_CtlSendStatus>
 8003034:	4628      	mov	r0, r5
 8003036:	bd70      	pop	{r4, r5, r6, pc}
 8003038:	2503      	movs	r5, #3
 800303a:	e7f5      	b.n	8003028 <USBD_StdItfReq+0x40>
 800303c:	4620      	mov	r0, r4
 800303e:	f7ff fe74 	bl	8002d2a <USBD_CtlError.constprop.0>
 8003042:	2500      	movs	r5, #0
 8003044:	e7f6      	b.n	8003034 <USBD_StdItfReq+0x4c>

08003046 <USBD_StdEPReq>:
 8003046:	b570      	push	{r4, r5, r6, lr}
 8003048:	780b      	ldrb	r3, [r1, #0]
 800304a:	888a      	ldrh	r2, [r1, #4]
 800304c:	790d      	ldrb	r5, [r1, #4]
 800304e:	f003 0360 	and.w	r3, r3, #96	; 0x60
 8003052:	2b20      	cmp	r3, #32
 8003054:	4604      	mov	r4, r0
 8003056:	460e      	mov	r6, r1
 8003058:	d05a      	beq.n	8003110 <USBD_StdEPReq+0xca>
 800305a:	2b40      	cmp	r3, #64	; 0x40
 800305c:	d058      	beq.n	8003110 <USBD_StdEPReq+0xca>
 800305e:	bb9b      	cbnz	r3, 80030c8 <USBD_StdEPReq+0x82>
 8003060:	784b      	ldrb	r3, [r1, #1]
 8003062:	2b01      	cmp	r3, #1
 8003064:	d042      	beq.n	80030ec <USBD_StdEPReq+0xa6>
 8003066:	2b03      	cmp	r3, #3
 8003068:	d027      	beq.n	80030ba <USBD_StdEPReq+0x74>
 800306a:	bb6b      	cbnz	r3, 80030c8 <USBD_StdEPReq+0x82>
 800306c:	f890 329c 	ldrb.w	r3, [r0, #668]	; 0x29c
 8003070:	2b02      	cmp	r3, #2
 8003072:	b2d9      	uxtb	r1, r3
 8003074:	d068      	beq.n	8003148 <USBD_StdEPReq+0x102>
 8003076:	2903      	cmp	r1, #3
 8003078:	d126      	bne.n	80030c8 <USBD_StdEPReq+0x82>
 800307a:	f005 030f 	and.w	r3, r5, #15
 800307e:	f012 0f80 	tst.w	r2, #128	; 0x80
 8003082:	f04f 0214 	mov.w	r2, #20
 8003086:	fb02 0303 	mla	r3, r2, r3, r0
 800308a:	d06c      	beq.n	8003166 <USBD_StdEPReq+0x120>
 800308c:	8c9b      	ldrh	r3, [r3, #36]	; 0x24
 800308e:	b1db      	cbz	r3, 80030c8 <USBD_StdEPReq+0x82>
 8003090:	f005 067f 	and.w	r6, r5, #127	; 0x7f
 8003094:	3601      	adds	r6, #1
 8003096:	eb06 0686 	add.w	r6, r6, r6, lsl #2
 800309a:	eb00 0686 	add.w	r6, r0, r6, lsl #2
 800309e:	f015 007f 	ands.w	r0, r5, #127	; 0x7f
 80030a2:	d006      	beq.n	80030b2 <USBD_StdEPReq+0x6c>
 80030a4:	4629      	mov	r1, r5
 80030a6:	4620      	mov	r0, r4
 80030a8:	f000 fa64 	bl	8003574 <USBD_LL_IsStallEP>
 80030ac:	3800      	subs	r0, #0
 80030ae:	bf18      	it	ne
 80030b0:	2001      	movne	r0, #1
 80030b2:	6030      	str	r0, [r6, #0]
 80030b4:	2202      	movs	r2, #2
 80030b6:	4631      	mov	r1, r6
 80030b8:	e051      	b.n	800315e <USBD_StdEPReq+0x118>
 80030ba:	f890 329c 	ldrb.w	r3, [r0, #668]	; 0x29c
 80030be:	2b02      	cmp	r3, #2
 80030c0:	b2da      	uxtb	r2, r3
 80030c2:	d037      	beq.n	8003134 <USBD_StdEPReq+0xee>
 80030c4:	2a03      	cmp	r2, #3
 80030c6:	d003      	beq.n	80030d0 <USBD_StdEPReq+0x8a>
 80030c8:	4620      	mov	r0, r4
 80030ca:	f7ff fe2e 	bl	8002d2a <USBD_CtlError.constprop.0>
 80030ce:	e00b      	b.n	80030e8 <USBD_StdEPReq+0xa2>
 80030d0:	884b      	ldrh	r3, [r1, #2]
 80030d2:	b933      	cbnz	r3, 80030e2 <USBD_StdEPReq+0x9c>
 80030d4:	0669      	lsls	r1, r5, #25
 80030d6:	d004      	beq.n	80030e2 <USBD_StdEPReq+0x9c>
 80030d8:	88f3      	ldrh	r3, [r6, #6]
 80030da:	b913      	cbnz	r3, 80030e2 <USBD_StdEPReq+0x9c>
 80030dc:	4629      	mov	r1, r5
 80030de:	f000 fa87 	bl	80035f0 <USBD_LL_StallEP>
 80030e2:	4620      	mov	r0, r4
 80030e4:	f000 f8a7 	bl	8003236 <USBD_CtlSendStatus>
 80030e8:	2000      	movs	r0, #0
 80030ea:	bd70      	pop	{r4, r5, r6, pc}
 80030ec:	f890 329c 	ldrb.w	r3, [r0, #668]	; 0x29c
 80030f0:	2b02      	cmp	r3, #2
 80030f2:	b2da      	uxtb	r2, r3
 80030f4:	d01e      	beq.n	8003134 <USBD_StdEPReq+0xee>
 80030f6:	2a03      	cmp	r2, #3
 80030f8:	d1e6      	bne.n	80030c8 <USBD_StdEPReq+0x82>
 80030fa:	884b      	ldrh	r3, [r1, #2]
 80030fc:	2b00      	cmp	r3, #0
 80030fe:	d1f3      	bne.n	80030e8 <USBD_StdEPReq+0xa2>
 8003100:	066b      	lsls	r3, r5, #25
 8003102:	d002      	beq.n	800310a <USBD_StdEPReq+0xc4>
 8003104:	4629      	mov	r1, r5
 8003106:	f000 fa7c 	bl	8003602 <USBD_LL_ClearStallEP>
 800310a:	4620      	mov	r0, r4
 800310c:	f000 f893 	bl	8003236 <USBD_CtlSendStatus>
 8003110:	4629      	mov	r1, r5
 8003112:	4620      	mov	r0, r4
 8003114:	f7ff fdf5 	bl	8002d02 <USBD_CoreFindEP>
 8003118:	2800      	cmp	r0, #0
 800311a:	d1e5      	bne.n	80030e8 <USBD_StdEPReq+0xa2>
 800311c:	f8d4 32b8 	ldr.w	r3, [r4, #696]	; 0x2b8
 8003120:	f8c4 02d4 	str.w	r0, [r4, #724]	; 0x2d4
 8003124:	689b      	ldr	r3, [r3, #8]
 8003126:	2b00      	cmp	r3, #0
 8003128:	d0de      	beq.n	80030e8 <USBD_StdEPReq+0xa2>
 800312a:	4631      	mov	r1, r6
 800312c:	4620      	mov	r0, r4
 800312e:	e8bd 4070 	ldmia.w	sp!, {r4, r5, r6, lr}
 8003132:	4718      	bx	r3
 8003134:	066a      	lsls	r2, r5, #25
 8003136:	d0c7      	beq.n	80030c8 <USBD_StdEPReq+0x82>
 8003138:	4629      	mov	r1, r5
 800313a:	f000 fa59 	bl	80035f0 <USBD_LL_StallEP>
 800313e:	2180      	movs	r1, #128	; 0x80
 8003140:	4620      	mov	r0, r4
 8003142:	f000 fa55 	bl	80035f0 <USBD_LL_StallEP>
 8003146:	e7cf      	b.n	80030e8 <USBD_StdEPReq+0xa2>
 8003148:	0669      	lsls	r1, r5, #25
 800314a:	d1bd      	bne.n	80030c8 <USBD_StdEPReq+0x82>
 800314c:	0613      	lsls	r3, r2, #24
 800314e:	bf4c      	ite	mi
 8003150:	f100 0114 	addmi.w	r1, r0, #20
 8003154:	f500 71aa 	addpl.w	r1, r0, #340	; 0x154
 8003158:	2300      	movs	r3, #0
 800315a:	600b      	str	r3, [r1, #0]
 800315c:	2202      	movs	r2, #2
 800315e:	4620      	mov	r0, r4
 8003160:	f000 f83f 	bl	80031e2 <USBD_CtlSendData>
 8003164:	e7c0      	b.n	80030e8 <USBD_StdEPReq+0xa2>
 8003166:	f8b3 3164 	ldrh.w	r3, [r3, #356]	; 0x164
 800316a:	2b00      	cmp	r3, #0
 800316c:	d0ac      	beq.n	80030c8 <USBD_StdEPReq+0x82>
 800316e:	f005 067f 	and.w	r6, r5, #127	; 0x7f
 8003172:	2314      	movs	r3, #20
 8003174:	fb03 0606 	mla	r6, r3, r6, r0
 8003178:	f506 76aa 	add.w	r6, r6, #340	; 0x154
 800317c:	e78f      	b.n	800309e <USBD_StdEPReq+0x58>

0800317e <USBD_ParseSetupRequest>:
 800317e:	780b      	ldrb	r3, [r1, #0]
 8003180:	7003      	strb	r3, [r0, #0]
 8003182:	784b      	ldrb	r3, [r1, #1]
 8003184:	7043      	strb	r3, [r0, #1]
 8003186:	884b      	ldrh	r3, [r1, #2]
 8003188:	8043      	strh	r3, [r0, #2]
 800318a:	888b      	ldrh	r3, [r1, #4]
 800318c:	8083      	strh	r3, [r0, #4]
 800318e:	88cb      	ldrh	r3, [r1, #6]
 8003190:	80c3      	strh	r3, [r0, #6]
 8003192:	4770      	bx	lr

08003194 <USBD_CtlError>:
 8003194:	b510      	push	{r4, lr}
 8003196:	2180      	movs	r1, #128	; 0x80
 8003198:	4604      	mov	r4, r0
 800319a:	f000 fa29 	bl	80035f0 <USBD_LL_StallEP>
 800319e:	4620      	mov	r0, r4
 80031a0:	2100      	movs	r1, #0
 80031a2:	e8bd 4010 	ldmia.w	sp!, {r4, lr}
 80031a6:	f000 ba23 	b.w	80035f0 <USBD_LL_StallEP>

080031aa <USBD_GetString>:
 80031aa:	b530      	push	{r4, r5, lr}
 80031ac:	b188      	cbz	r0, 80031d2 <USBD_GetString+0x28>
 80031ae:	2400      	movs	r4, #0
 80031b0:	3801      	subs	r0, #1
 80031b2:	4623      	mov	r3, r4
 80031b4:	3401      	adds	r4, #1
 80031b6:	5d05      	ldrb	r5, [r0, r4]
 80031b8:	2d00      	cmp	r5, #0
 80031ba:	d1fa      	bne.n	80031b2 <USBD_GetString+0x8>
 80031bc:	b2db      	uxtb	r3, r3
 80031be:	3301      	adds	r3, #1
 80031c0:	005b      	lsls	r3, r3, #1
 80031c2:	8013      	strh	r3, [r2, #0]
 80031c4:	700b      	strb	r3, [r1, #0]
 80031c6:	2303      	movs	r3, #3
 80031c8:	704b      	strb	r3, [r1, #1]
 80031ca:	2302      	movs	r3, #2
 80031cc:	f810 2f01 	ldrb.w	r2, [r0, #1]!
 80031d0:	b902      	cbnz	r2, 80031d4 <USBD_GetString+0x2a>
 80031d2:	bd30      	pop	{r4, r5, pc}
 80031d4:	54ca      	strb	r2, [r1, r3]
 80031d6:	1c5a      	adds	r2, r3, #1
 80031d8:	b2d2      	uxtb	r2, r2
 80031da:	3302      	adds	r3, #2
 80031dc:	548d      	strb	r5, [r1, r2]
 80031de:	b2db      	uxtb	r3, r3
 80031e0:	e7f4      	b.n	80031cc <USBD_GetString+0x22>

080031e2 <USBD_CtlSendData>:
 80031e2:	b510      	push	{r4, lr}
 80031e4:	4613      	mov	r3, r2
 80031e6:	2202      	movs	r2, #2
 80031e8:	e9c0 3306 	strd	r3, r3, [r0, #24]
 80031ec:	f8c0 2294 	str.w	r2, [r0, #660]	; 0x294
 80031f0:	460a      	mov	r2, r1
 80031f2:	2100      	movs	r1, #0
 80031f4:	f000 fa17 	bl	8003626 <USBD_LL_Transmit>
 80031f8:	2000      	movs	r0, #0
 80031fa:	bd10      	pop	{r4, pc}

080031fc <USBD_CtlContinueSendData>:
 80031fc:	b508      	push	{r3, lr}
 80031fe:	4613      	mov	r3, r2
 8003200:	460a      	mov	r2, r1
 8003202:	2100      	movs	r1, #0
 8003204:	f000 fa0f 	bl	8003626 <USBD_LL_Transmit>
 8003208:	2000      	movs	r0, #0
 800320a:	bd08      	pop	{r3, pc}

0800320c <USBD_CtlPrepareRx>:
 800320c:	b510      	push	{r4, lr}
 800320e:	4613      	mov	r3, r2
 8003210:	2203      	movs	r2, #3
 8003212:	e9c0 3356 	strd	r3, r3, [r0, #344]	; 0x158
 8003216:	f8c0 2294 	str.w	r2, [r0, #660]	; 0x294
 800321a:	460a      	mov	r2, r1
 800321c:	2100      	movs	r1, #0
 800321e:	f000 fa0b 	bl	8003638 <USBD_LL_PrepareReceive>
 8003222:	2000      	movs	r0, #0
 8003224:	bd10      	pop	{r4, pc}

08003226 <USBD_CtlContinueRx>:
 8003226:	b508      	push	{r3, lr}
 8003228:	4613      	mov	r3, r2
 800322a:	460a      	mov	r2, r1
 800322c:	2100      	movs	r1, #0
 800322e:	f000 fa03 	bl	8003638 <USBD_LL_PrepareReceive>
 8003232:	2000      	movs	r0, #0
 8003234:	bd08      	pop	{r3, pc}

08003236 <USBD_CtlSendStatus>:
 8003236:	b508      	push	{r3, lr}
 8003238:	2204      	movs	r2, #4
 800323a:	2300      	movs	r3, #0
 800323c:	f8c0 2294 	str.w	r2, [r0, #660]	; 0x294
 8003240:	4619      	mov	r1, r3
 8003242:	461a      	mov	r2, r3
 8003244:	f000 f9ef 	bl	8003626 <USBD_LL_Transmit>
 8003248:	2000      	movs	r0, #0
 800324a:	bd08      	pop	{r3, pc}

0800324c <USBD_CtlReceiveStatus>:
 800324c:	b508      	push	{r3, lr}
 800324e:	2205      	movs	r2, #5
 8003250:	2300      	movs	r3, #0
 8003252:	f8c0 2294 	str.w	r2, [r0, #660]	; 0x294
 8003256:	4619      	mov	r1, r3
 8003258:	461a      	mov	r2, r3
 800325a:	f000 f9ed 	bl	8003638 <USBD_LL_PrepareReceive>
 800325e:	2000      	movs	r0, #0
 8003260:	bd08      	pop	{r3, pc}
	...

08003264 <MX_USB_DEVICE_Init>:
 8003264:	b508      	push	{r3, lr}
 8003266:	490f      	ldr	r1, [pc, #60]	; (80032a4 <MX_USB_DEVICE_Init+0x40>)
 8003268:	480f      	ldr	r0, [pc, #60]	; (80032a8 <MX_USB_DEVICE_Init+0x44>)
 800326a:	2200      	movs	r2, #0
 800326c:	f7ff fbbb 	bl	80029e6 <USBD_Init>
 8003270:	b108      	cbz	r0, 8003276 <MX_USB_DEVICE_Init+0x12>
 8003272:	f7fd fa45 	bl	8000700 <Error_Handler>
 8003276:	490d      	ldr	r1, [pc, #52]	; (80032ac <MX_USB_DEVICE_Init+0x48>)
 8003278:	480b      	ldr	r0, [pc, #44]	; (80032a8 <MX_USB_DEVICE_Init+0x44>)
 800327a:	f7ff fbc7 	bl	8002a0c <USBD_RegisterClass>
 800327e:	b108      	cbz	r0, 8003284 <MX_USB_DEVICE_Init+0x20>
 8003280:	f7fd fa3e 	bl	8000700 <Error_Handler>
 8003284:	490a      	ldr	r1, [pc, #40]	; (80032b0 <MX_USB_DEVICE_Init+0x4c>)
 8003286:	4808      	ldr	r0, [pc, #32]	; (80032a8 <MX_USB_DEVICE_Init+0x44>)
 8003288:	f7ff fba2 	bl	80029d0 <USBD_CUSTOM_HID_RegisterInterface>
 800328c:	b108      	cbz	r0, 8003292 <MX_USB_DEVICE_Init+0x2e>
 800328e:	f7fd fa37 	bl	8000700 <Error_Handler>
 8003292:	4805      	ldr	r0, [pc, #20]	; (80032a8 <MX_USB_DEVICE_Init+0x44>)
 8003294:	f7ff fbd3 	bl	8002a3e <USBD_Start>
 8003298:	b118      	cbz	r0, 80032a2 <MX_USB_DEVICE_Init+0x3e>
 800329a:	e8bd 4008 	ldmia.w	sp!, {r3, lr}
 800329e:	f7fd ba2f 	b.w	8000700 <Error_Handler>
 80032a2:	bd08      	pop	{r3, pc}
 80032a4:	20000100 	.word	0x20000100
 80032a8:	20000220 	.word	0x20000220
 80032ac:	2000000c 	.word	0x2000000c
 80032b0:	200000f0 	.word	0x200000f0

080032b4 <CUSTOM_HID_Init_FS>:
 80032b4:	2000      	movs	r0, #0
 80032b6:	4770      	bx	lr

080032b8 <CUSTOM_HID_OutEvent_FS>:
 80032b8:	b508      	push	{r3, lr}
 80032ba:	4804      	ldr	r0, [pc, #16]	; (80032cc <CUSTOM_HID_OutEvent_FS+0x14>)
 80032bc:	f7ff fb79 	bl	80029b2 <USBD_CUSTOM_HID_ReceivePacket>
 80032c0:	3800      	subs	r0, #0
 80032c2:	bf18      	it	ne
 80032c4:	2001      	movne	r0, #1
 80032c6:	4240      	negs	r0, r0
 80032c8:	bd08      	pop	{r3, pc}
 80032ca:	bf00      	nop
 80032cc:	20000220 	.word	0x20000220

080032d0 <CUSTOM_HID_DeInit_FS>:
 80032d0:	2000      	movs	r0, #0
 80032d2:	4770      	bx	lr

080032d4 <USBD_FS_DeviceDescriptor>:
 80032d4:	2312      	movs	r3, #18
 80032d6:	4801      	ldr	r0, [pc, #4]	; (80032dc <USBD_FS_DeviceDescriptor+0x8>)
 80032d8:	800b      	strh	r3, [r1, #0]
 80032da:	4770      	bx	lr
 80032dc:	2000011c 	.word	0x2000011c

080032e0 <USBD_FS_LangIDStrDescriptor>:
 80032e0:	2304      	movs	r3, #4
 80032e2:	4801      	ldr	r0, [pc, #4]	; (80032e8 <USBD_FS_LangIDStrDescriptor+0x8>)
 80032e4:	800b      	strh	r3, [r1, #0]
 80032e6:	4770      	bx	lr
 80032e8:	20000130 	.word	0x20000130

080032ec <IntToUnicode>:
 80032ec:	2300      	movs	r3, #0
 80032ee:	b570      	push	{r4, r5, r6, lr}
 80032f0:	1c4d      	adds	r5, r1, #1
 80032f2:	461e      	mov	r6, r3
 80032f4:	0f04      	lsrs	r4, r0, #28
 80032f6:	f1b0 4f20 	cmp.w	r0, #2684354560	; 0xa0000000
 80032fa:	bf34      	ite	cc
 80032fc:	3430      	addcc	r4, #48	; 0x30
 80032fe:	3437      	addcs	r4, #55	; 0x37
 8003300:	f801 4013 	strb.w	r4, [r1, r3, lsl #1]
 8003304:	f805 6013 	strb.w	r6, [r5, r3, lsl #1]
 8003308:	3301      	adds	r3, #1
 800330a:	b2dc      	uxtb	r4, r3
 800330c:	42a2      	cmp	r2, r4
 800330e:	ea4f 1000 	mov.w	r0, r0, lsl #4
 8003312:	d8ef      	bhi.n	80032f4 <IntToUnicode+0x8>
 8003314:	bd70      	pop	{r4, r5, r6, pc}
	...

08003318 <USBD_FS_SerialStrDescriptor>:
 8003318:	231a      	movs	r3, #26
 800331a:	b510      	push	{r4, lr}
 800331c:	800b      	strh	r3, [r1, #0]
 800331e:	4b0a      	ldr	r3, [pc, #40]	; (8003348 <USBD_FS_SerialStrDescriptor+0x30>)
 8003320:	f8d3 0a10 	ldr.w	r0, [r3, #2576]	; 0xa10
 8003324:	f8d3 2a18 	ldr.w	r2, [r3, #2584]	; 0xa18
 8003328:	1880      	adds	r0, r0, r2
 800332a:	d00a      	beq.n	8003342 <USBD_FS_SerialStrDescriptor+0x2a>
 800332c:	f8d3 4a14 	ldr.w	r4, [r3, #2580]	; 0xa14
 8003330:	4906      	ldr	r1, [pc, #24]	; (800334c <USBD_FS_SerialStrDescriptor+0x34>)
 8003332:	2208      	movs	r2, #8
 8003334:	f7ff ffda 	bl	80032ec <IntToUnicode>
 8003338:	2204      	movs	r2, #4
 800333a:	3110      	adds	r1, #16
 800333c:	4620      	mov	r0, r4
 800333e:	f7ff ffd5 	bl	80032ec <IntToUnicode>
 8003342:	4803      	ldr	r0, [pc, #12]	; (8003350 <USBD_FS_SerialStrDescriptor+0x38>)
 8003344:	bd10      	pop	{r4, pc}
 8003346:	bf00      	nop
 8003348:	1fff7000 	.word	0x1fff7000
 800334c:	20000136 	.word	0x20000136
 8003350:	20000134 	.word	0x20000134

08003354 <USBD_FS_ManufacturerStrDescriptor>:
 8003354:	b510      	push	{r4, lr}
 8003356:	4c04      	ldr	r4, [pc, #16]	; (8003368 <USBD_FS_ManufacturerStrDescriptor+0x14>)
 8003358:	4804      	ldr	r0, [pc, #16]	; (800336c <USBD_FS_ManufacturerStrDescriptor+0x18>)
 800335a:	460a      	mov	r2, r1
 800335c:	4621      	mov	r1, r4
 800335e:	f7ff ff24 	bl	80031aa <USBD_GetString>
 8003362:	4620      	mov	r0, r4
 8003364:	bd10      	pop	{r4, pc}
 8003366:	bf00      	nop
 8003368:	200004fc 	.word	0x200004fc
 800336c:	0800451c 	.word	0x0800451c

08003370 <USBD_FS_ProductStrDescriptor>:
 8003370:	b510      	push	{r4, lr}
 8003372:	4c04      	ldr	r4, [pc, #16]	; (8003384 <USBD_FS_ProductStrDescriptor+0x14>)
 8003374:	4804      	ldr	r0, [pc, #16]	; (8003388 <USBD_FS_ProductStrDescriptor+0x18>)
 8003376:	460a      	mov	r2, r1
 8003378:	4621      	mov	r1, r4
 800337a:	f7ff ff16 	bl	80031aa <USBD_GetString>
 800337e:	4620      	mov	r0, r4
 8003380:	bd10      	pop	{r4, pc}
 8003382:	bf00      	nop
 8003384:	200004fc 	.word	0x200004fc
 8003388:	08004523 	.word	0x08004523

0800338c <USBD_FS_ConfigStrDescriptor>:
 800338c:	b510      	push	{r4, lr}
 800338e:	4c04      	ldr	r4, [pc, #16]	; (80033a0 <USBD_FS_ConfigStrDescriptor+0x14>)
 8003390:	4804      	ldr	r0, [pc, #16]	; (80033a4 <USBD_FS_ConfigStrDescriptor+0x18>)
 8003392:	460a      	mov	r2, r1
 8003394:	4621      	mov	r1, r4
 8003396:	f7ff ff08 	bl	80031aa <USBD_GetString>
 800339a:	4620      	mov	r0, r4
 800339c:	bd10      	pop	{r4, pc}
 800339e:	bf00      	nop
 80033a0:	200004fc 	.word	0x200004fc
 80033a4:	08004530 	.word	0x08004530

080033a8 <USBD_FS_InterfaceStrDescriptor>:
 80033a8:	b510      	push	{r4, lr}
 80033aa:	4c04      	ldr	r4, [pc, #16]	; (80033bc <USBD_FS_InterfaceStrDescriptor+0x14>)
 80033ac:	4804      	ldr	r0, [pc, #16]	; (80033c0 <USBD_FS_InterfaceStrDescriptor+0x18>)
 80033ae:	460a      	mov	r2, r1
 80033b0:	4621      	mov	r1, r4
 80033b2:	f7ff fefa 	bl	80031aa <USBD_GetString>
 80033b6:	4620      	mov	r0, r4
 80033b8:	bd10      	pop	{r4, pc}
 80033ba:	bf00      	nop
 80033bc:	200004fc 	.word	0x200004fc
 80033c0:	08004542 	.word	0x08004542

080033c4 <HAL_PCD_MspInit>:
 80033c4:	b530      	push	{r4, r5, lr}
 80033c6:	4604      	mov	r4, r0
 80033c8:	b089      	sub	sp, #36	; 0x24
 80033ca:	2214      	movs	r2, #20
 80033cc:	2100      	movs	r1, #0
 80033ce:	a803      	add	r0, sp, #12
 80033d0:	f000 fa53 	bl	800387a <memset>
 80033d4:	6823      	ldr	r3, [r4, #0]
 80033d6:	f1b3 4fa0 	cmp.w	r3, #1342177280	; 0x50000000
 80033da:	d12e      	bne.n	800343a <HAL_PCD_MspInit+0x76>
 80033dc:	4c18      	ldr	r4, [pc, #96]	; (8003440 <HAL_PCD_MspInit+0x7c>)
 80033de:	4819      	ldr	r0, [pc, #100]	; (8003444 <HAL_PCD_MspInit+0x80>)
 80033e0:	2500      	movs	r5, #0
 80033e2:	9501      	str	r5, [sp, #4]
 80033e4:	6b23      	ldr	r3, [r4, #48]	; 0x30
 80033e6:	f043 0301 	orr.w	r3, r3, #1
 80033ea:	6323      	str	r3, [r4, #48]	; 0x30
 80033ec:	6b23      	ldr	r3, [r4, #48]	; 0x30
 80033ee:	f003 0301 	and.w	r3, r3, #1
 80033f2:	9301      	str	r3, [sp, #4]
 80033f4:	f44f 52c0 	mov.w	r2, #6144	; 0x1800
 80033f8:	9b01      	ldr	r3, [sp, #4]
 80033fa:	2302      	movs	r3, #2
 80033fc:	e9cd 2303 	strd	r2, r3, [sp, #12]
 8003400:	2103      	movs	r1, #3
 8003402:	230a      	movs	r3, #10
 8003404:	e9cd 1306 	strd	r1, r3, [sp, #24]
 8003408:	a903      	add	r1, sp, #12
 800340a:	f7fd fb47 	bl	8000a9c <HAL_GPIO_Init>
 800340e:	6b63      	ldr	r3, [r4, #52]	; 0x34
 8003410:	f043 0380 	orr.w	r3, r3, #128	; 0x80
 8003414:	6363      	str	r3, [r4, #52]	; 0x34
 8003416:	9502      	str	r5, [sp, #8]
 8003418:	6c63      	ldr	r3, [r4, #68]	; 0x44
 800341a:	f443 4380 	orr.w	r3, r3, #16384	; 0x4000
 800341e:	6463      	str	r3, [r4, #68]	; 0x44
 8003420:	6c63      	ldr	r3, [r4, #68]	; 0x44
 8003422:	f403 4380 	and.w	r3, r3, #16384	; 0x4000
 8003426:	9302      	str	r3, [sp, #8]
 8003428:	2043      	movs	r0, #67	; 0x43
 800342a:	462a      	mov	r2, r5
 800342c:	4629      	mov	r1, r5
 800342e:	9b02      	ldr	r3, [sp, #8]
 8003430:	f7fd fae0 	bl	80009f4 <HAL_NVIC_SetPriority>
 8003434:	2043      	movs	r0, #67	; 0x43
 8003436:	f7fd fb0f 	bl	8000a58 <HAL_NVIC_EnableIRQ>
 800343a:	b009      	add	sp, #36	; 0x24
 800343c:	bd30      	pop	{r4, r5, pc}
 800343e:	bf00      	nop
 8003440:	40023800 	.word	0x40023800
 8003444:	40020000 	.word	0x40020000

08003448 <HAL_PCD_SetupStageCallback>:
 8003448:	f200 419c 	addw	r1, r0, #1180	; 0x49c
 800344c:	f8d0 04e0 	ldr.w	r0, [r0, #1248]	; 0x4e0
 8003450:	f7ff bb07 	b.w	8002a62 <USBD_LL_SetupStage>

08003454 <HAL_PCD_DataOutStageCallback>:
 8003454:	b538      	push	{r3, r4, r5, lr}
 8003456:	4604      	mov	r4, r0
 8003458:	460d      	mov	r5, r1
 800345a:	4808      	ldr	r0, [pc, #32]	; (800347c <HAL_PCD_DataOutStageCallback+0x28>)
 800345c:	f44f 5180 	mov.w	r1, #4096	; 0x1000
 8003460:	f7fd fbfb 	bl	8000c5a <HAL_GPIO_TogglePin>
 8003464:	2324      	movs	r3, #36	; 0x24
 8003466:	fb03 4305 	mla	r3, r3, r5, r4
 800346a:	f8d4 04e0 	ldr.w	r0, [r4, #1248]	; 0x4e0
 800346e:	f8d3 2260 	ldr.w	r2, [r3, #608]	; 0x260
 8003472:	4629      	mov	r1, r5
 8003474:	e8bd 4038 	ldmia.w	sp!, {r3, r4, r5, lr}
 8003478:	f7ff bb23 	b.w	8002ac2 <USBD_LL_DataOutStage>
 800347c:	40020c00 	.word	0x40020c00

08003480 <HAL_PCD_DataInStageCallback>:
 8003480:	2324      	movs	r3, #36	; 0x24
 8003482:	fb03 0301 	mla	r3, r3, r1, r0
 8003486:	f8d0 04e0 	ldr.w	r0, [r0, #1248]	; 0x4e0
 800348a:	6a1a      	ldr	r2, [r3, #32]
 800348c:	f7ff bb4e 	b.w	8002b2c <USBD_LL_DataInStage>

08003490 <HAL_PCD_SOFCallback>:
 8003490:	f8d0 04e0 	ldr.w	r0, [r0, #1248]	; 0x4e0
 8003494:	f7ff bbec 	b.w	8002c70 <USBD_LL_SOF>

08003498 <HAL_PCD_ResetCallback>:
 8003498:	b510      	push	{r4, lr}
 800349a:	79c1      	ldrb	r1, [r0, #7]
 800349c:	4604      	mov	r4, r0
 800349e:	b121      	cbz	r1, 80034aa <HAL_PCD_ResetCallback+0x12>
 80034a0:	2902      	cmp	r1, #2
 80034a2:	d001      	beq.n	80034a8 <HAL_PCD_ResetCallback+0x10>
 80034a4:	f7fd f92c 	bl	8000700 <Error_Handler>
 80034a8:	2101      	movs	r1, #1
 80034aa:	f8d4 04e0 	ldr.w	r0, [r4, #1248]	; 0x4e0
 80034ae:	f7ff fbc3 	bl	8002c38 <USBD_LL_SetSpeed>
 80034b2:	f8d4 04e0 	ldr.w	r0, [r4, #1248]	; 0x4e0
 80034b6:	e8bd 4010 	ldmia.w	sp!, {r4, lr}
 80034ba:	f7ff bb8e 	b.w	8002bda <USBD_LL_Reset>
	...

080034c0 <HAL_PCD_SuspendCallback>:
 80034c0:	b510      	push	{r4, lr}
 80034c2:	4604      	mov	r4, r0
 80034c4:	f8d0 04e0 	ldr.w	r0, [r0, #1248]	; 0x4e0
 80034c8:	f7ff fbb9 	bl	8002c3e <USBD_LL_Suspend>
 80034cc:	6822      	ldr	r2, [r4, #0]
 80034ce:	f8d2 3e00 	ldr.w	r3, [r2, #3584]	; 0xe00
 80034d2:	f043 0301 	orr.w	r3, r3, #1
 80034d6:	f8c2 3e00 	str.w	r3, [r2, #3584]	; 0xe00
 80034da:	7ae3      	ldrb	r3, [r4, #11]
 80034dc:	b123      	cbz	r3, 80034e8 <HAL_PCD_SuspendCallback+0x28>
 80034de:	4a03      	ldr	r2, [pc, #12]	; (80034ec <HAL_PCD_SuspendCallback+0x2c>)
 80034e0:	6913      	ldr	r3, [r2, #16]
 80034e2:	f043 0306 	orr.w	r3, r3, #6
 80034e6:	6113      	str	r3, [r2, #16]
 80034e8:	bd10      	pop	{r4, pc}
 80034ea:	bf00      	nop
 80034ec:	e000ed00 	.word	0xe000ed00

080034f0 <HAL_PCD_ResumeCallback>:
 80034f0:	f8d0 04e0 	ldr.w	r0, [r0, #1248]	; 0x4e0
 80034f4:	f7ff bbb1 	b.w	8002c5a <USBD_LL_Resume>

080034f8 <HAL_PCD_ISOOUTIncompleteCallback>:
 80034f8:	f8d0 04e0 	ldr.w	r0, [r0, #1248]	; 0x4e0
 80034fc:	f7ff bbd9 	b.w	8002cb2 <USBD_LL_IsoOUTIncomplete>

08003500 <HAL_PCD_ISOINIncompleteCallback>:
 8003500:	f8d0 04e0 	ldr.w	r0, [r0, #1248]	; 0x4e0
 8003504:	f7ff bbc1 	b.w	8002c8a <USBD_LL_IsoINIncomplete>

08003508 <HAL_PCD_ConnectCallback>:
 8003508:	f8d0 04e0 	ldr.w	r0, [r0, #1248]	; 0x4e0
 800350c:	f7ff bbe5 	b.w	8002cda <USBD_LL_DevConnected>

08003510 <HAL_PCD_DisconnectCallback>:
 8003510:	f8d0 04e0 	ldr.w	r0, [r0, #1248]	; 0x4e0
 8003514:	f7ff bbe3 	b.w	8002cde <USBD_LL_DevDisconnected>

08003518 <USBD_LL_Init>:
 8003518:	b508      	push	{r3, lr}
 800351a:	7802      	ldrb	r2, [r0, #0]
 800351c:	bb2a      	cbnz	r2, 800356a <USBD_LL_Init+0x52>
 800351e:	4b14      	ldr	r3, [pc, #80]	; (8003570 <USBD_LL_Init+0x58>)
 8003520:	f04f 41a0 	mov.w	r1, #1342177280	; 0x50000000
 8003524:	6019      	str	r1, [r3, #0]
 8003526:	2104      	movs	r1, #4
 8003528:	7119      	strb	r1, [r3, #4]
 800352a:	f44f 7100 	mov.w	r1, #512	; 0x200
 800352e:	f8c3 04e0 	str.w	r0, [r3, #1248]	; 0x4e0
 8003532:	80d9      	strh	r1, [r3, #6]
 8003534:	f8c0 32c8 	str.w	r3, [r0, #712]	; 0x2c8
 8003538:	2102      	movs	r1, #2
 800353a:	815a      	strh	r2, [r3, #10]
 800353c:	81da      	strh	r2, [r3, #14]
 800353e:	4618      	mov	r0, r3
 8003540:	7259      	strb	r1, [r3, #9]
 8003542:	731a      	strb	r2, [r3, #12]
 8003544:	f7fd fb92 	bl	8000c6c <HAL_PCD_Init>
 8003548:	b108      	cbz	r0, 800354e <USBD_LL_Init+0x36>
 800354a:	f7fd f8d9 	bl	8000700 <Error_Handler>
 800354e:	2180      	movs	r1, #128	; 0x80
 8003550:	4807      	ldr	r0, [pc, #28]	; (8003570 <USBD_LL_Init+0x58>)
 8003552:	f7fe f8b5 	bl	80016c0 <HAL_PCDEx_SetRxFiFo>
 8003556:	2240      	movs	r2, #64	; 0x40
 8003558:	2100      	movs	r1, #0
 800355a:	4805      	ldr	r0, [pc, #20]	; (8003570 <USBD_LL_Init+0x58>)
 800355c:	f7fe f890 	bl	8001680 <HAL_PCDEx_SetTxFiFo>
 8003560:	4803      	ldr	r0, [pc, #12]	; (8003570 <USBD_LL_Init+0x58>)
 8003562:	2280      	movs	r2, #128	; 0x80
 8003564:	2101      	movs	r1, #1
 8003566:	f7fe f88b 	bl	8001680 <HAL_PCDEx_SetTxFiFo>
 800356a:	2000      	movs	r0, #0
 800356c:	bd08      	pop	{r3, pc}
 800356e:	bf00      	nop
 8003570:	200006fc 	.word	0x200006fc

08003574 <USBD_LL_IsStallEP>:
 8003574:	f011 0f80 	tst.w	r1, #128	; 0x80
 8003578:	f8d0 32c8 	ldr.w	r3, [r0, #712]	; 0x2c8
 800357c:	f04f 0224 	mov.w	r2, #36	; 0x24
 8003580:	bf1b      	ittet	ne
 8003582:	f001 017f 	andne.w	r1, r1, #127	; 0x7f
 8003586:	fb02 3301 	mlane	r3, r2, r1, r3
 800358a:	fb02 3301 	mlaeq	r3, r2, r1, r3
 800358e:	7d98      	ldrbne	r0, [r3, #22]
 8003590:	bf08      	it	eq
 8003592:	f893 0256 	ldrbeq.w	r0, [r3, #598]	; 0x256
 8003596:	4770      	bx	lr

08003598 <USBD_static_malloc>:
 8003598:	4800      	ldr	r0, [pc, #0]	; (800359c <USBD_static_malloc+0x4>)
 800359a:	4770      	bx	lr
 800359c:	20000be0 	.word	0x20000be0

080035a0 <USBD_static_free>:
 80035a0:	4770      	bx	lr
	...

080035a4 <USBD_Get_USB_Status>:
 80035a4:	2803      	cmp	r0, #3
 80035a6:	bf9a      	itte	ls
 80035a8:	4b01      	ldrls	r3, [pc, #4]	; (80035b0 <USBD_Get_USB_Status+0xc>)
 80035aa:	5c18      	ldrbls	r0, [r3, r0]
 80035ac:	2003      	movhi	r0, #3
 80035ae:	4770      	bx	lr
 80035b0:	08004557 	.word	0x08004557

080035b4 <USBD_LL_Start>:
 80035b4:	b508      	push	{r3, lr}
 80035b6:	f8d0 02c8 	ldr.w	r0, [r0, #712]	; 0x2c8
 80035ba:	f7fd fbc9 	bl	8000d50 <HAL_PCD_Start>
 80035be:	e8bd 4008 	ldmia.w	sp!, {r3, lr}
 80035c2:	f7ff bfef 	b.w	80035a4 <USBD_Get_USB_Status>

080035c6 <USBD_LL_OpenEP>:
 80035c6:	b510      	push	{r4, lr}
 80035c8:	4614      	mov	r4, r2
 80035ca:	f8d0 02c8 	ldr.w	r0, [r0, #712]	; 0x2c8
 80035ce:	461a      	mov	r2, r3
 80035d0:	4623      	mov	r3, r4
 80035d2:	f7fd fbef 	bl	8000db4 <HAL_PCD_EP_Open>
 80035d6:	e8bd 4010 	ldmia.w	sp!, {r4, lr}
 80035da:	f7ff bfe3 	b.w	80035a4 <USBD_Get_USB_Status>

080035de <USBD_LL_CloseEP>:
 80035de:	b508      	push	{r3, lr}
 80035e0:	f8d0 02c8 	ldr.w	r0, [r0, #712]	; 0x2c8
 80035e4:	f7fd fc1d 	bl	8000e22 <HAL_PCD_EP_Close>
 80035e8:	e8bd 4008 	ldmia.w	sp!, {r3, lr}
 80035ec:	f7ff bfda 	b.w	80035a4 <USBD_Get_USB_Status>

080035f0 <USBD_LL_StallEP>:
 80035f0:	b508      	push	{r3, lr}
 80035f2:	f8d0 02c8 	ldr.w	r0, [r0, #712]	; 0x2c8
 80035f6:	f7fd fc7a 	bl	8000eee <HAL_PCD_EP_SetStall>
 80035fa:	e8bd 4008 	ldmia.w	sp!, {r3, lr}
 80035fe:	f7ff bfd1 	b.w	80035a4 <USBD_Get_USB_Status>

08003602 <USBD_LL_ClearStallEP>:
 8003602:	b508      	push	{r3, lr}
 8003604:	f8d0 02c8 	ldr.w	r0, [r0, #712]	; 0x2c8
 8003608:	f7fd fcaa 	bl	8000f60 <HAL_PCD_EP_ClrStall>
 800360c:	e8bd 4008 	ldmia.w	sp!, {r3, lr}
 8003610:	f7ff bfc8 	b.w	80035a4 <USBD_Get_USB_Status>

08003614 <USBD_LL_SetUSBAddress>:
 8003614:	b508      	push	{r3, lr}
 8003616:	f8d0 02c8 	ldr.w	r0, [r0, #712]	; 0x2c8
 800361a:	f7fd fbb8 	bl	8000d8e <HAL_PCD_SetAddress>
 800361e:	e8bd 4008 	ldmia.w	sp!, {r3, lr}
 8003622:	f7ff bfbf 	b.w	80035a4 <USBD_Get_USB_Status>

08003626 <USBD_LL_Transmit>:
 8003626:	b508      	push	{r3, lr}
 8003628:	f8d0 02c8 	ldr.w	r0, [r0, #712]	; 0x2c8
 800362c:	f7fd fc45 	bl	8000eba <HAL_PCD_EP_Transmit>
 8003630:	e8bd 4008 	ldmia.w	sp!, {r3, lr}
 8003634:	f7ff bfb6 	b.w	80035a4 <USBD_Get_USB_Status>

08003638 <USBD_LL_PrepareReceive>:
 8003638:	b508      	push	{r3, lr}
 800363a:	f8d0 02c8 	ldr.w	r0, [r0, #712]	; 0x2c8
 800363e:	f7fd fc1e 	bl	8000e7e <HAL_PCD_EP_Receive>
 8003642:	e8bd 4008 	ldmia.w	sp!, {r3, lr}
 8003646:	f7ff bfad 	b.w	80035a4 <USBD_Get_USB_Status>
	...

0800364c <std>:
 800364c:	2300      	movs	r3, #0
 800364e:	b510      	push	{r4, lr}
 8003650:	4604      	mov	r4, r0
 8003652:	e9c0 3300 	strd	r3, r3, [r0]
 8003656:	e9c0 3304 	strd	r3, r3, [r0, #16]
 800365a:	6083      	str	r3, [r0, #8]
 800365c:	8181      	strh	r1, [r0, #12]
 800365e:	6643      	str	r3, [r0, #100]	; 0x64
 8003660:	81c2      	strh	r2, [r0, #14]
 8003662:	6183      	str	r3, [r0, #24]
 8003664:	4619      	mov	r1, r3
 8003666:	2208      	movs	r2, #8
 8003668:	305c      	adds	r0, #92	; 0x5c
 800366a:	f000 f906 	bl	800387a <memset>
 800366e:	4b0d      	ldr	r3, [pc, #52]	; (80036a4 <std+0x58>)
 8003670:	6263      	str	r3, [r4, #36]	; 0x24
 8003672:	4b0d      	ldr	r3, [pc, #52]	; (80036a8 <std+0x5c>)
 8003674:	62a3      	str	r3, [r4, #40]	; 0x28
 8003676:	4b0d      	ldr	r3, [pc, #52]	; (80036ac <std+0x60>)
 8003678:	62e3      	str	r3, [r4, #44]	; 0x2c
 800367a:	4b0d      	ldr	r3, [pc, #52]	; (80036b0 <std+0x64>)
 800367c:	6323      	str	r3, [r4, #48]	; 0x30
 800367e:	4b0d      	ldr	r3, [pc, #52]	; (80036b4 <std+0x68>)
 8003680:	6224      	str	r4, [r4, #32]
 8003682:	429c      	cmp	r4, r3
 8003684:	d006      	beq.n	8003694 <std+0x48>
 8003686:	f103 0268 	add.w	r2, r3, #104	; 0x68
 800368a:	4294      	cmp	r4, r2
 800368c:	d002      	beq.n	8003694 <std+0x48>
 800368e:	33d0      	adds	r3, #208	; 0xd0
 8003690:	429c      	cmp	r4, r3
 8003692:	d105      	bne.n	80036a0 <std+0x54>
 8003694:	f104 0058 	add.w	r0, r4, #88	; 0x58
 8003698:	e8bd 4010 	ldmia.w	sp!, {r4, lr}
 800369c:	f000 b966 	b.w	800396c <__retarget_lock_init_recursive>
 80036a0:	bd10      	pop	{r4, pc}
 80036a2:	bf00      	nop
 80036a4:	080037f5 	.word	0x080037f5
 80036a8:	08003817 	.word	0x08003817
 80036ac:	0800384f 	.word	0x0800384f
 80036b0:	08003873 	.word	0x08003873
 80036b4:	20000c38 	.word	0x20000c38

080036b8 <stdio_exit_handler>:
 80036b8:	4a02      	ldr	r2, [pc, #8]	; (80036c4 <stdio_exit_handler+0xc>)
 80036ba:	4903      	ldr	r1, [pc, #12]	; (80036c8 <stdio_exit_handler+0x10>)
 80036bc:	4803      	ldr	r0, [pc, #12]	; (80036cc <stdio_exit_handler+0x14>)
 80036be:	f000 b869 	b.w	8003794 <_fwalk_sglue>
 80036c2:	bf00      	nop
 80036c4:	20000150 	.word	0x20000150
 80036c8:	08004219 	.word	0x08004219
 80036cc:	2000015c 	.word	0x2000015c

080036d0 <cleanup_stdio>:
 80036d0:	6841      	ldr	r1, [r0, #4]
 80036d2:	4b0c      	ldr	r3, [pc, #48]	; (8003704 <cleanup_stdio+0x34>)
 80036d4:	4299      	cmp	r1, r3
 80036d6:	b510      	push	{r4, lr}
 80036d8:	4604      	mov	r4, r0
 80036da:	d001      	beq.n	80036e0 <cleanup_stdio+0x10>
 80036dc:	f000 fd9c 	bl	8004218 <_fflush_r>
 80036e0:	68a1      	ldr	r1, [r4, #8]
 80036e2:	4b09      	ldr	r3, [pc, #36]	; (8003708 <cleanup_stdio+0x38>)
 80036e4:	4299      	cmp	r1, r3
 80036e6:	d002      	beq.n	80036ee <cleanup_stdio+0x1e>
 80036e8:	4620      	mov	r0, r4
 80036ea:	f000 fd95 	bl	8004218 <_fflush_r>
 80036ee:	68e1      	ldr	r1, [r4, #12]
 80036f0:	4b06      	ldr	r3, [pc, #24]	; (800370c <cleanup_stdio+0x3c>)
 80036f2:	4299      	cmp	r1, r3
 80036f4:	d004      	beq.n	8003700 <cleanup_stdio+0x30>
 80036f6:	4620      	mov	r0, r4
 80036f8:	e8bd 4010 	ldmia.w	sp!, {r4, lr}
 80036fc:	f000 bd8c 	b.w	8004218 <_fflush_r>
 8003700:	bd10      	pop	{r4, pc}
 8003702:	bf00      	nop
 8003704:	20000c38 	.word	0x20000c38
 8003708:	20000ca0 	.word	0x20000ca0
 800370c:	20000d08 	.word	0x20000d08

08003710 <global_stdio_init.part.0>:
 8003710:	b510      	push	{r4, lr}
 8003712:	4b0b      	ldr	r3, [pc, #44]	; (8003740 <global_stdio_init.part.0+0x30>)
 8003714:	4c0b      	ldr	r4, [pc, #44]	; (8003744 <global_stdio_init.part.0+0x34>)
 8003716:	4a0c      	ldr	r2, [pc, #48]	; (8003748 <global_stdio_init.part.0+0x38>)
 8003718:	601a      	str	r2, [r3, #0]
 800371a:	4620      	mov	r0, r4
 800371c:	2200      	movs	r2, #0
 800371e:	2104      	movs	r1, #4
 8003720:	f7ff ff94 	bl	800364c <std>
 8003724:	f104 0068 	add.w	r0, r4, #104	; 0x68
 8003728:	2201      	movs	r2, #1
 800372a:	2109      	movs	r1, #9
 800372c:	f7ff ff8e 	bl	800364c <std>
 8003730:	f104 00d0 	add.w	r0, r4, #208	; 0xd0
 8003734:	2202      	movs	r2, #2
 8003736:	e8bd 4010 	ldmia.w	sp!, {r4, lr}
 800373a:	2112      	movs	r1, #18
 800373c:	f7ff bf86 	b.w	800364c <std>
 8003740:	20000d70 	.word	0x20000d70
 8003744:	20000c38 	.word	0x20000c38
 8003748:	080036b9 	.word	0x080036b9

0800374c <__sfp_lock_acquire>:
 800374c:	4801      	ldr	r0, [pc, #4]	; (8003754 <__sfp_lock_acquire+0x8>)
 800374e:	f000 b90e 	b.w	800396e <__retarget_lock_acquire_recursive>
 8003752:	bf00      	nop
 8003754:	20000d79 	.word	0x20000d79

08003758 <__sfp_lock_release>:
 8003758:	4801      	ldr	r0, [pc, #4]	; (8003760 <__sfp_lock_release+0x8>)
 800375a:	f000 b909 	b.w	8003970 <__retarget_lock_release_recursive>
 800375e:	bf00      	nop
 8003760:	20000d79 	.word	0x20000d79

08003764 <__sinit>:
 8003764:	b510      	push	{r4, lr}
 8003766:	4604      	mov	r4, r0
 8003768:	f7ff fff0 	bl	800374c <__sfp_lock_acquire>
 800376c:	6a23      	ldr	r3, [r4, #32]
 800376e:	b11b      	cbz	r3, 8003778 <__sinit+0x14>
 8003770:	e8bd 4010 	ldmia.w	sp!, {r4, lr}
 8003774:	f7ff bff0 	b.w	8003758 <__sfp_lock_release>
 8003778:	4b04      	ldr	r3, [pc, #16]	; (800378c <__sinit+0x28>)
 800377a:	6223      	str	r3, [r4, #32]
 800377c:	4b04      	ldr	r3, [pc, #16]	; (8003790 <__sinit+0x2c>)
 800377e:	681b      	ldr	r3, [r3, #0]
 8003780:	2b00      	cmp	r3, #0
 8003782:	d1f5      	bne.n	8003770 <__sinit+0xc>
 8003784:	f7ff ffc4 	bl	8003710 <global_stdio_init.part.0>
 8003788:	e7f2      	b.n	8003770 <__sinit+0xc>
 800378a:	bf00      	nop
 800378c:	080036d1 	.word	0x080036d1
 8003790:	20000d70 	.word	0x20000d70

08003794 <_fwalk_sglue>:
 8003794:	e92d 43f8 	stmdb	sp!, {r3, r4, r5, r6, r7, r8, r9, lr}
 8003798:	4607      	mov	r7, r0
 800379a:	4688      	mov	r8, r1
 800379c:	4614      	mov	r4, r2
 800379e:	2600      	movs	r6, #0
 80037a0:	e9d4 9501 	ldrd	r9, r5, [r4, #4]
 80037a4:	f1b9 0901 	subs.w	r9, r9, #1
 80037a8:	d505      	bpl.n	80037b6 <_fwalk_sglue+0x22>
 80037aa:	6824      	ldr	r4, [r4, #0]
 80037ac:	2c00      	cmp	r4, #0
 80037ae:	d1f7      	bne.n	80037a0 <_fwalk_sglue+0xc>
 80037b0:	4630      	mov	r0, r6
 80037b2:	e8bd 83f8 	ldmia.w	sp!, {r3, r4, r5, r6, r7, r8, r9, pc}
 80037b6:	89ab      	ldrh	r3, [r5, #12]
 80037b8:	2b01      	cmp	r3, #1
 80037ba:	d907      	bls.n	80037cc <_fwalk_sglue+0x38>
 80037bc:	f9b5 300e 	ldrsh.w	r3, [r5, #14]
 80037c0:	3301      	adds	r3, #1
 80037c2:	d003      	beq.n	80037cc <_fwalk_sglue+0x38>
 80037c4:	4629      	mov	r1, r5
 80037c6:	4638      	mov	r0, r7
 80037c8:	47c0      	blx	r8
 80037ca:	4306      	orrs	r6, r0
 80037cc:	3568      	adds	r5, #104	; 0x68
 80037ce:	e7e9      	b.n	80037a4 <_fwalk_sglue+0x10>

080037d0 <iprintf>:
 80037d0:	b40f      	push	{r0, r1, r2, r3}
 80037d2:	b507      	push	{r0, r1, r2, lr}
 80037d4:	4906      	ldr	r1, [pc, #24]	; (80037f0 <iprintf+0x20>)
 80037d6:	ab04      	add	r3, sp, #16
 80037d8:	6808      	ldr	r0, [r1, #0]
 80037da:	f853 2b04 	ldr.w	r2, [r3], #4
 80037de:	6881      	ldr	r1, [r0, #8]
 80037e0:	9301      	str	r3, [sp, #4]
 80037e2:	f000 f9e9 	bl	8003bb8 <_vfiprintf_r>
 80037e6:	b003      	add	sp, #12
 80037e8:	f85d eb04 	ldr.w	lr, [sp], #4
 80037ec:	b004      	add	sp, #16
 80037ee:	4770      	bx	lr
 80037f0:	200001a8 	.word	0x200001a8

080037f4 <__sread>:
 80037f4:	b510      	push	{r4, lr}
 80037f6:	460c      	mov	r4, r1
 80037f8:	f9b1 100e 	ldrsh.w	r1, [r1, #14]
 80037fc:	f000 f868 	bl	80038d0 <_read_r>
 8003800:	2800      	cmp	r0, #0
 8003802:	bfab      	itete	ge
 8003804:	6d63      	ldrge	r3, [r4, #84]	; 0x54
 8003806:	89a3      	ldrhlt	r3, [r4, #12]
 8003808:	181b      	addge	r3, r3, r0
 800380a:	f423 5380 	biclt.w	r3, r3, #4096	; 0x1000
 800380e:	bfac      	ite	ge
 8003810:	6563      	strge	r3, [r4, #84]	; 0x54
 8003812:	81a3      	strhlt	r3, [r4, #12]
 8003814:	bd10      	pop	{r4, pc}

08003816 <__swrite>:
 8003816:	e92d 41f0 	stmdb	sp!, {r4, r5, r6, r7, r8, lr}
 800381a:	461f      	mov	r7, r3
 800381c:	898b      	ldrh	r3, [r1, #12]
 800381e:	05db      	lsls	r3, r3, #23
 8003820:	4605      	mov	r5, r0
 8003822:	460c      	mov	r4, r1
 8003824:	4616      	mov	r6, r2
 8003826:	d505      	bpl.n	8003834 <__swrite+0x1e>
 8003828:	f9b1 100e 	ldrsh.w	r1, [r1, #14]
 800382c:	2302      	movs	r3, #2
 800382e:	2200      	movs	r2, #0
 8003830:	f000 f83c 	bl	80038ac <_lseek_r>
 8003834:	89a3      	ldrh	r3, [r4, #12]
 8003836:	f9b4 100e 	ldrsh.w	r1, [r4, #14]
 800383a:	f423 5380 	bic.w	r3, r3, #4096	; 0x1000
 800383e:	81a3      	strh	r3, [r4, #12]
 8003840:	4632      	mov	r2, r6
 8003842:	463b      	mov	r3, r7
 8003844:	4628      	mov	r0, r5
 8003846:	e8bd 41f0 	ldmia.w	sp!, {r4, r5, r6, r7, r8, lr}
 800384a:	f000 b853 	b.w	80038f4 <_write_r>

0800384e <__sseek>:
 800384e:	b510      	push	{r4, lr}
 8003850:	460c      	mov	r4, r1
 8003852:	f9b1 100e 	ldrsh.w	r1, [r1, #14]
 8003856:	f000 f829 	bl	80038ac <_lseek_r>
 800385a:	1c43      	adds	r3, r0, #1
 800385c:	89a3      	ldrh	r3, [r4, #12]
 800385e:	bf15      	itete	ne
 8003860:	6560      	strne	r0, [r4, #84]	; 0x54
 8003862:	f423 5380 	biceq.w	r3, r3, #4096	; 0x1000
 8003866:	f443 5380 	orrne.w	r3, r3, #4096	; 0x1000
 800386a:	81a3      	strheq	r3, [r4, #12]
 800386c:	bf18      	it	ne
 800386e:	81a3      	strhne	r3, [r4, #12]
 8003870:	bd10      	pop	{r4, pc}

08003872 <__sclose>:
 8003872:	f9b1 100e 	ldrsh.w	r1, [r1, #14]
 8003876:	f000 b809 	b.w	800388c <_close_r>

0800387a <memset>:
 800387a:	4402      	add	r2, r0
 800387c:	4603      	mov	r3, r0
 800387e:	4293      	cmp	r3, r2
 8003880:	d100      	bne.n	8003884 <memset+0xa>
 8003882:	4770      	bx	lr
 8003884:	f803 1b01 	strb.w	r1, [r3], #1
 8003888:	e7f9      	b.n	800387e <memset+0x4>
	...

0800388c <_close_r>:
 800388c:	b538      	push	{r3, r4, r5, lr}
 800388e:	4d06      	ldr	r5, [pc, #24]	; (80038a8 <_close_r+0x1c>)
 8003890:	2300      	movs	r3, #0
 8003892:	4604      	mov	r4, r0
 8003894:	4608      	mov	r0, r1
 8003896:	602b      	str	r3, [r5, #0]
 8003898:	f7fc ffba 	bl	8000810 <_close>
 800389c:	1c43      	adds	r3, r0, #1
 800389e:	d102      	bne.n	80038a6 <_close_r+0x1a>
 80038a0:	682b      	ldr	r3, [r5, #0]
 80038a2:	b103      	cbz	r3, 80038a6 <_close_r+0x1a>
 80038a4:	6023      	str	r3, [r4, #0]
 80038a6:	bd38      	pop	{r3, r4, r5, pc}
 80038a8:	20000d74 	.word	0x20000d74

080038ac <_lseek_r>:
 80038ac:	b538      	push	{r3, r4, r5, lr}
 80038ae:	4d07      	ldr	r5, [pc, #28]	; (80038cc <_lseek_r+0x20>)
 80038b0:	4604      	mov	r4, r0
 80038b2:	4608      	mov	r0, r1
 80038b4:	4611      	mov	r1, r2
 80038b6:	2200      	movs	r2, #0
 80038b8:	602a      	str	r2, [r5, #0]
 80038ba:	461a      	mov	r2, r3
 80038bc:	f7fc ffb2 	bl	8000824 <_lseek>
 80038c0:	1c43      	adds	r3, r0, #1
 80038c2:	d102      	bne.n	80038ca <_lseek_r+0x1e>
 80038c4:	682b      	ldr	r3, [r5, #0]
 80038c6:	b103      	cbz	r3, 80038ca <_lseek_r+0x1e>
 80038c8:	6023      	str	r3, [r4, #0]
 80038ca:	bd38      	pop	{r3, r4, r5, pc}
 80038cc:	20000d74 	.word	0x20000d74

080038d0 <_read_r>:
 80038d0:	b538      	push	{r3, r4, r5, lr}
 80038d2:	4d07      	ldr	r5, [pc, #28]	; (80038f0 <_read_r+0x20>)
 80038d4:	4604      	mov	r4, r0
 80038d6:	4608      	mov	r0, r1
 80038d8:	4611      	mov	r1, r2
 80038da:	2200      	movs	r2, #0
 80038dc:	602a      	str	r2, [r5, #0]
 80038de:	461a      	mov	r2, r3
 80038e0:	f7fc ff88 	bl	80007f4 <_read>
 80038e4:	1c43      	adds	r3, r0, #1
 80038e6:	d102      	bne.n	80038ee <_read_r+0x1e>
 80038e8:	682b      	ldr	r3, [r5, #0]
 80038ea:	b103      	cbz	r3, 80038ee <_read_r+0x1e>
 80038ec:	6023      	str	r3, [r4, #0]
 80038ee:	bd38      	pop	{r3, r4, r5, pc}
 80038f0:	20000d74 	.word	0x20000d74

080038f4 <_write_r>:
 80038f4:	b538      	push	{r3, r4, r5, lr}
 80038f6:	4d07      	ldr	r5, [pc, #28]	; (8003914 <_write_r+0x20>)
 80038f8:	4604      	mov	r4, r0
 80038fa:	4608      	mov	r0, r1
 80038fc:	4611      	mov	r1, r2
 80038fe:	2200      	movs	r2, #0
 8003900:	602a      	str	r2, [r5, #0]
 8003902:	461a      	mov	r2, r3
 8003904:	f7fc fefa 	bl	80006fc <_write>
 8003908:	1c43      	adds	r3, r0, #1
 800390a:	d102      	bne.n	8003912 <_write_r+0x1e>
 800390c:	682b      	ldr	r3, [r5, #0]
 800390e:	b103      	cbz	r3, 8003912 <_write_r+0x1e>
 8003910:	6023      	str	r3, [r4, #0]
 8003912:	bd38      	pop	{r3, r4, r5, pc}
 8003914:	20000d74 	.word	0x20000d74

08003918 <__errno>:
 8003918:	4b01      	ldr	r3, [pc, #4]	; (8003920 <__errno+0x8>)
 800391a:	6818      	ldr	r0, [r3, #0]
 800391c:	4770      	bx	lr
 800391e:	bf00      	nop
 8003920:	200001a8 	.word	0x200001a8

08003924 <__libc_init_array>:
 8003924:	b570      	push	{r4, r5, r6, lr}
 8003926:	4d0d      	ldr	r5, [pc, #52]	; (800395c <__libc_init_array+0x38>)
 8003928:	4c0d      	ldr	r4, [pc, #52]	; (8003960 <__libc_init_array+0x3c>)
 800392a:	1b64      	subs	r4, r4, r5
 800392c:	10a4      	asrs	r4, r4, #2
 800392e:	2600      	movs	r6, #0
 8003930:	42a6      	cmp	r6, r4
 8003932:	d109      	bne.n	8003948 <__libc_init_array+0x24>
 8003934:	4d0b      	ldr	r5, [pc, #44]	; (8003964 <__libc_init_array+0x40>)
 8003936:	4c0c      	ldr	r4, [pc, #48]	; (8003968 <__libc_init_array+0x44>)
 8003938:	f000 fdc0 	bl	80044bc <_init>
 800393c:	1b64      	subs	r4, r4, r5
 800393e:	10a4      	asrs	r4, r4, #2
 8003940:	2600      	movs	r6, #0
 8003942:	42a6      	cmp	r6, r4
 8003944:	d105      	bne.n	8003952 <__libc_init_array+0x2e>
 8003946:	bd70      	pop	{r4, r5, r6, pc}
 8003948:	f855 3b04 	ldr.w	r3, [r5], #4
 800394c:	4798      	blx	r3
 800394e:	3601      	adds	r6, #1
 8003950:	e7ee      	b.n	8003930 <__libc_init_array+0xc>
 8003952:	f855 3b04 	ldr.w	r3, [r5], #4
 8003956:	4798      	blx	r3
 8003958:	3601      	adds	r6, #1
 800395a:	e7f2      	b.n	8003942 <__libc_init_array+0x1e>
 800395c:	08004598 	.word	0x08004598
 8003960:	08004598 	.word	0x08004598
 8003964:	08004598 	.word	0x08004598
 8003968:	0800459c 	.word	0x0800459c

0800396c <__retarget_lock_init_recursive>:
 800396c:	4770      	bx	lr

0800396e <__retarget_lock_acquire_recursive>:
 800396e:	4770      	bx	lr

08003970 <__retarget_lock_release_recursive>:
 8003970:	4770      	bx	lr
	...

08003974 <_free_r>:
 8003974:	b537      	push	{r0, r1, r2, r4, r5, lr}
 8003976:	2900      	cmp	r1, #0
 8003978:	d044      	beq.n	8003a04 <_free_r+0x90>
 800397a:	f851 3c04 	ldr.w	r3, [r1, #-4]
 800397e:	9001      	str	r0, [sp, #4]
 8003980:	2b00      	cmp	r3, #0
 8003982:	f1a1 0404 	sub.w	r4, r1, #4
 8003986:	bfb8      	it	lt
 8003988:	18e4      	addlt	r4, r4, r3
 800398a:	f000 f8df 	bl	8003b4c <__malloc_lock>
 800398e:	4a1e      	ldr	r2, [pc, #120]	; (8003a08 <_free_r+0x94>)
 8003990:	9801      	ldr	r0, [sp, #4]
 8003992:	6813      	ldr	r3, [r2, #0]
 8003994:	b933      	cbnz	r3, 80039a4 <_free_r+0x30>
 8003996:	6063      	str	r3, [r4, #4]
 8003998:	6014      	str	r4, [r2, #0]
 800399a:	b003      	add	sp, #12
 800399c:	e8bd 4030 	ldmia.w	sp!, {r4, r5, lr}
 80039a0:	f000 b8da 	b.w	8003b58 <__malloc_unlock>
 80039a4:	42a3      	cmp	r3, r4
 80039a6:	d908      	bls.n	80039ba <_free_r+0x46>
 80039a8:	6825      	ldr	r5, [r4, #0]
 80039aa:	1961      	adds	r1, r4, r5
 80039ac:	428b      	cmp	r3, r1
 80039ae:	bf01      	itttt	eq
 80039b0:	6819      	ldreq	r1, [r3, #0]
 80039b2:	685b      	ldreq	r3, [r3, #4]
 80039b4:	1949      	addeq	r1, r1, r5
 80039b6:	6021      	streq	r1, [r4, #0]
 80039b8:	e7ed      	b.n	8003996 <_free_r+0x22>
 80039ba:	461a      	mov	r2, r3
 80039bc:	685b      	ldr	r3, [r3, #4]
 80039be:	b10b      	cbz	r3, 80039c4 <_free_r+0x50>
 80039c0:	42a3      	cmp	r3, r4
 80039c2:	d9fa      	bls.n	80039ba <_free_r+0x46>
 80039c4:	6811      	ldr	r1, [r2, #0]
 80039c6:	1855      	adds	r5, r2, r1
 80039c8:	42a5      	cmp	r5, r4
 80039ca:	d10b      	bne.n	80039e4 <_free_r+0x70>
 80039cc:	6824      	ldr	r4, [r4, #0]
 80039ce:	4421      	add	r1, r4
 80039d0:	1854      	adds	r4, r2, r1
 80039d2:	42a3      	cmp	r3, r4
 80039d4:	6011      	str	r1, [r2, #0]
 80039d6:	d1e0      	bne.n	800399a <_free_r+0x26>
 80039d8:	681c      	ldr	r4, [r3, #0]
 80039da:	685b      	ldr	r3, [r3, #4]
 80039dc:	6053      	str	r3, [r2, #4]
 80039de:	440c      	add	r4, r1
 80039e0:	6014      	str	r4, [r2, #0]
 80039e2:	e7da      	b.n	800399a <_free_r+0x26>
 80039e4:	d902      	bls.n	80039ec <_free_r+0x78>
 80039e6:	230c      	movs	r3, #12
 80039e8:	6003      	str	r3, [r0, #0]
 80039ea:	e7d6      	b.n	800399a <_free_r+0x26>
 80039ec:	6825      	ldr	r5, [r4, #0]
 80039ee:	1961      	adds	r1, r4, r5
 80039f0:	428b      	cmp	r3, r1
 80039f2:	bf04      	itt	eq
 80039f4:	6819      	ldreq	r1, [r3, #0]
 80039f6:	685b      	ldreq	r3, [r3, #4]
 80039f8:	6063      	str	r3, [r4, #4]
 80039fa:	bf04      	itt	eq
 80039fc:	1949      	addeq	r1, r1, r5
 80039fe:	6021      	streq	r1, [r4, #0]
 8003a00:	6054      	str	r4, [r2, #4]
 8003a02:	e7ca      	b.n	800399a <_free_r+0x26>
 8003a04:	b003      	add	sp, #12
 8003a06:	bd30      	pop	{r4, r5, pc}
 8003a08:	20000d7c 	.word	0x20000d7c

08003a0c <sbrk_aligned>:
 8003a0c:	b570      	push	{r4, r5, r6, lr}
 8003a0e:	4e0e      	ldr	r6, [pc, #56]	; (8003a48 <sbrk_aligned+0x3c>)
 8003a10:	460c      	mov	r4, r1
 8003a12:	6831      	ldr	r1, [r6, #0]
 8003a14:	4605      	mov	r5, r0
 8003a16:	b911      	cbnz	r1, 8003a1e <sbrk_aligned+0x12>
 8003a18:	f000 fcbc 	bl	8004394 <_sbrk_r>
 8003a1c:	6030      	str	r0, [r6, #0]
 8003a1e:	4621      	mov	r1, r4
 8003a20:	4628      	mov	r0, r5
 8003a22:	f000 fcb7 	bl	8004394 <_sbrk_r>
 8003a26:	1c43      	adds	r3, r0, #1
 8003a28:	d00a      	beq.n	8003a40 <sbrk_aligned+0x34>
 8003a2a:	1cc4      	adds	r4, r0, #3
 8003a2c:	f024 0403 	bic.w	r4, r4, #3
 8003a30:	42a0      	cmp	r0, r4
 8003a32:	d007      	beq.n	8003a44 <sbrk_aligned+0x38>
 8003a34:	1a21      	subs	r1, r4, r0
 8003a36:	4628      	mov	r0, r5
 8003a38:	f000 fcac 	bl	8004394 <_sbrk_r>
 8003a3c:	3001      	adds	r0, #1
 8003a3e:	d101      	bne.n	8003a44 <sbrk_aligned+0x38>
 8003a40:	f04f 34ff 	mov.w	r4, #4294967295
 8003a44:	4620      	mov	r0, r4
 8003a46:	bd70      	pop	{r4, r5, r6, pc}
 8003a48:	20000d80 	.word	0x20000d80

08003a4c <_malloc_r>:
 8003a4c:	e92d 43f8 	stmdb	sp!, {r3, r4, r5, r6, r7, r8, r9, lr}
 8003a50:	1ccd      	adds	r5, r1, #3
 8003a52:	f025 0503 	bic.w	r5, r5, #3
 8003a56:	3508      	adds	r5, #8
 8003a58:	2d0c      	cmp	r5, #12
 8003a5a:	bf38      	it	cc
 8003a5c:	250c      	movcc	r5, #12
 8003a5e:	2d00      	cmp	r5, #0
 8003a60:	4607      	mov	r7, r0
 8003a62:	db01      	blt.n	8003a68 <_malloc_r+0x1c>
 8003a64:	42a9      	cmp	r1, r5
 8003a66:	d905      	bls.n	8003a74 <_malloc_r+0x28>
 8003a68:	230c      	movs	r3, #12
 8003a6a:	603b      	str	r3, [r7, #0]
 8003a6c:	2600      	movs	r6, #0
 8003a6e:	4630      	mov	r0, r6
 8003a70:	e8bd 83f8 	ldmia.w	sp!, {r3, r4, r5, r6, r7, r8, r9, pc}
 8003a74:	f8df 80d0 	ldr.w	r8, [pc, #208]	; 8003b48 <_malloc_r+0xfc>
 8003a78:	f000 f868 	bl	8003b4c <__malloc_lock>
 8003a7c:	f8d8 3000 	ldr.w	r3, [r8]
 8003a80:	461c      	mov	r4, r3
 8003a82:	bb5c      	cbnz	r4, 8003adc <_malloc_r+0x90>
 8003a84:	4629      	mov	r1, r5
 8003a86:	4638      	mov	r0, r7
 8003a88:	f7ff ffc0 	bl	8003a0c <sbrk_aligned>
 8003a8c:	1c43      	adds	r3, r0, #1
 8003a8e:	4604      	mov	r4, r0
 8003a90:	d155      	bne.n	8003b3e <_malloc_r+0xf2>
 8003a92:	f8d8 4000 	ldr.w	r4, [r8]
 8003a96:	4626      	mov	r6, r4
 8003a98:	2e00      	cmp	r6, #0
 8003a9a:	d145      	bne.n	8003b28 <_malloc_r+0xdc>
 8003a9c:	2c00      	cmp	r4, #0
 8003a9e:	d048      	beq.n	8003b32 <_malloc_r+0xe6>
 8003aa0:	6823      	ldr	r3, [r4, #0]
 8003aa2:	4631      	mov	r1, r6
 8003aa4:	4638      	mov	r0, r7
 8003aa6:	eb04 0903 	add.w	r9, r4, r3
 8003aaa:	f000 fc73 	bl	8004394 <_sbrk_r>
 8003aae:	4581      	cmp	r9, r0
 8003ab0:	d13f      	bne.n	8003b32 <_malloc_r+0xe6>
 8003ab2:	6821      	ldr	r1, [r4, #0]
 8003ab4:	1a6d      	subs	r5, r5, r1
 8003ab6:	4629      	mov	r1, r5
 8003ab8:	4638      	mov	r0, r7
 8003aba:	f7ff ffa7 	bl	8003a0c <sbrk_aligned>
 8003abe:	3001      	adds	r0, #1
 8003ac0:	d037      	beq.n	8003b32 <_malloc_r+0xe6>
 8003ac2:	6823      	ldr	r3, [r4, #0]
 8003ac4:	442b      	add	r3, r5
 8003ac6:	6023      	str	r3, [r4, #0]
 8003ac8:	f8d8 3000 	ldr.w	r3, [r8]
 8003acc:	2b00      	cmp	r3, #0
 8003ace:	d038      	beq.n	8003b42 <_malloc_r+0xf6>
 8003ad0:	685a      	ldr	r2, [r3, #4]
 8003ad2:	42a2      	cmp	r2, r4
 8003ad4:	d12b      	bne.n	8003b2e <_malloc_r+0xe2>
 8003ad6:	2200      	movs	r2, #0
 8003ad8:	605a      	str	r2, [r3, #4]
 8003ada:	e00f      	b.n	8003afc <_malloc_r+0xb0>
 8003adc:	6822      	ldr	r2, [r4, #0]
 8003ade:	1b52      	subs	r2, r2, r5
 8003ae0:	d41f      	bmi.n	8003b22 <_malloc_r+0xd6>
 8003ae2:	2a0b      	cmp	r2, #11
 8003ae4:	d917      	bls.n	8003b16 <_malloc_r+0xca>
 8003ae6:	1961      	adds	r1, r4, r5
 8003ae8:	42a3      	cmp	r3, r4
 8003aea:	6025      	str	r5, [r4, #0]
 8003aec:	bf18      	it	ne
 8003aee:	6059      	strne	r1, [r3, #4]
 8003af0:	6863      	ldr	r3, [r4, #4]
 8003af2:	bf08      	it	eq
 8003af4:	f8c8 1000 	streq.w	r1, [r8]
 8003af8:	5162      	str	r2, [r4, r5]
 8003afa:	604b      	str	r3, [r1, #4]
 8003afc:	4638      	mov	r0, r7
 8003afe:	f104 060b 	add.w	r6, r4, #11
 8003b02:	f000 f829 	bl	8003b58 <__malloc_unlock>
 8003b06:	f026 0607 	bic.w	r6, r6, #7
 8003b0a:	1d23      	adds	r3, r4, #4
 8003b0c:	1af2      	subs	r2, r6, r3
 8003b0e:	d0ae      	beq.n	8003a6e <_malloc_r+0x22>
 8003b10:	1b9b      	subs	r3, r3, r6
 8003b12:	50a3      	str	r3, [r4, r2]
 8003b14:	e7ab      	b.n	8003a6e <_malloc_r+0x22>
 8003b16:	42a3      	cmp	r3, r4
 8003b18:	6862      	ldr	r2, [r4, #4]
 8003b1a:	d1dd      	bne.n	8003ad8 <_malloc_r+0x8c>
 8003b1c:	f8c8 2000 	str.w	r2, [r8]
 8003b20:	e7ec      	b.n	8003afc <_malloc_r+0xb0>
 8003b22:	4623      	mov	r3, r4
 8003b24:	6864      	ldr	r4, [r4, #4]
 8003b26:	e7ac      	b.n	8003a82 <_malloc_r+0x36>
 8003b28:	4634      	mov	r4, r6
 8003b2a:	6876      	ldr	r6, [r6, #4]
 8003b2c:	e7b4      	b.n	8003a98 <_malloc_r+0x4c>
 8003b2e:	4613      	mov	r3, r2
 8003b30:	e7cc      	b.n	8003acc <_malloc_r+0x80>
 8003b32:	230c      	movs	r3, #12
 8003b34:	603b      	str	r3, [r7, #0]
 8003b36:	4638      	mov	r0, r7
 8003b38:	f000 f80e 	bl	8003b58 <__malloc_unlock>
 8003b3c:	e797      	b.n	8003a6e <_malloc_r+0x22>
 8003b3e:	6025      	str	r5, [r4, #0]
 8003b40:	e7dc      	b.n	8003afc <_malloc_r+0xb0>
 8003b42:	605b      	str	r3, [r3, #4]
 8003b44:	deff      	udf	#255	; 0xff
 8003b46:	bf00      	nop
 8003b48:	20000d7c 	.word	0x20000d7c

08003b4c <__malloc_lock>:
 8003b4c:	4801      	ldr	r0, [pc, #4]	; (8003b54 <__malloc_lock+0x8>)
 8003b4e:	f7ff bf0e 	b.w	800396e <__retarget_lock_acquire_recursive>
 8003b52:	bf00      	nop
 8003b54:	20000d78 	.word	0x20000d78

08003b58 <__malloc_unlock>:
 8003b58:	4801      	ldr	r0, [pc, #4]	; (8003b60 <__malloc_unlock+0x8>)
 8003b5a:	f7ff bf09 	b.w	8003970 <__retarget_lock_release_recursive>
 8003b5e:	bf00      	nop
 8003b60:	20000d78 	.word	0x20000d78

08003b64 <__sfputc_r>:
 8003b64:	6893      	ldr	r3, [r2, #8]
 8003b66:	3b01      	subs	r3, #1
 8003b68:	2b00      	cmp	r3, #0
 8003b6a:	b410      	push	{r4}
 8003b6c:	6093      	str	r3, [r2, #8]
 8003b6e:	da08      	bge.n	8003b82 <__sfputc_r+0x1e>
 8003b70:	6994      	ldr	r4, [r2, #24]
 8003b72:	42a3      	cmp	r3, r4
 8003b74:	db01      	blt.n	8003b7a <__sfputc_r+0x16>
 8003b76:	290a      	cmp	r1, #10
 8003b78:	d103      	bne.n	8003b82 <__sfputc_r+0x1e>
 8003b7a:	f85d 4b04 	ldr.w	r4, [sp], #4
 8003b7e:	f000 bb73 	b.w	8004268 <__swbuf_r>
 8003b82:	6813      	ldr	r3, [r2, #0]
 8003b84:	1c58      	adds	r0, r3, #1
 8003b86:	6010      	str	r0, [r2, #0]
 8003b88:	7019      	strb	r1, [r3, #0]
 8003b8a:	4608      	mov	r0, r1
 8003b8c:	f85d 4b04 	ldr.w	r4, [sp], #4
 8003b90:	4770      	bx	lr

08003b92 <__sfputs_r>:
 8003b92:	b5f8      	push	{r3, r4, r5, r6, r7, lr}
 8003b94:	4606      	mov	r6, r0
 8003b96:	460f      	mov	r7, r1
 8003b98:	4614      	mov	r4, r2
 8003b9a:	18d5      	adds	r5, r2, r3
 8003b9c:	42ac      	cmp	r4, r5
 8003b9e:	d101      	bne.n	8003ba4 <__sfputs_r+0x12>
 8003ba0:	2000      	movs	r0, #0
 8003ba2:	e007      	b.n	8003bb4 <__sfputs_r+0x22>
 8003ba4:	f814 1b01 	ldrb.w	r1, [r4], #1
 8003ba8:	463a      	mov	r2, r7
 8003baa:	4630      	mov	r0, r6
 8003bac:	f7ff ffda 	bl	8003b64 <__sfputc_r>
 8003bb0:	1c43      	adds	r3, r0, #1
 8003bb2:	d1f3      	bne.n	8003b9c <__sfputs_r+0xa>
 8003bb4:	bdf8      	pop	{r3, r4, r5, r6, r7, pc}
	...

08003bb8 <_vfiprintf_r>:
 8003bb8:	e92d 4ff0 	stmdb	sp!, {r4, r5, r6, r7, r8, r9, sl, fp, lr}
 8003bbc:	460d      	mov	r5, r1
 8003bbe:	b09d      	sub	sp, #116	; 0x74
 8003bc0:	4614      	mov	r4, r2
 8003bc2:	4698      	mov	r8, r3
 8003bc4:	4606      	mov	r6, r0
 8003bc6:	b118      	cbz	r0, 8003bd0 <_vfiprintf_r+0x18>
 8003bc8:	6a03      	ldr	r3, [r0, #32]
 8003bca:	b90b      	cbnz	r3, 8003bd0 <_vfiprintf_r+0x18>
 8003bcc:	f7ff fdca 	bl	8003764 <__sinit>
 8003bd0:	6e6b      	ldr	r3, [r5, #100]	; 0x64
 8003bd2:	07d9      	lsls	r1, r3, #31
 8003bd4:	d405      	bmi.n	8003be2 <_vfiprintf_r+0x2a>
 8003bd6:	89ab      	ldrh	r3, [r5, #12]
 8003bd8:	059a      	lsls	r2, r3, #22
 8003bda:	d402      	bmi.n	8003be2 <_vfiprintf_r+0x2a>
 8003bdc:	6da8      	ldr	r0, [r5, #88]	; 0x58
 8003bde:	f7ff fec6 	bl	800396e <__retarget_lock_acquire_recursive>
 8003be2:	89ab      	ldrh	r3, [r5, #12]
 8003be4:	071b      	lsls	r3, r3, #28
 8003be6:	d501      	bpl.n	8003bec <_vfiprintf_r+0x34>
 8003be8:	692b      	ldr	r3, [r5, #16]
 8003bea:	b99b      	cbnz	r3, 8003c14 <_vfiprintf_r+0x5c>
 8003bec:	4629      	mov	r1, r5
 8003bee:	4630      	mov	r0, r6
 8003bf0:	f000 fb78 	bl	80042e4 <__swsetup_r>
 8003bf4:	b170      	cbz	r0, 8003c14 <_vfiprintf_r+0x5c>
 8003bf6:	6e6b      	ldr	r3, [r5, #100]	; 0x64
 8003bf8:	07dc      	lsls	r4, r3, #31
 8003bfa:	d504      	bpl.n	8003c06 <_vfiprintf_r+0x4e>
 8003bfc:	f04f 30ff 	mov.w	r0, #4294967295
 8003c00:	b01d      	add	sp, #116	; 0x74
 8003c02:	e8bd 8ff0 	ldmia.w	sp!, {r4, r5, r6, r7, r8, r9, sl, fp, pc}
 8003c06:	89ab      	ldrh	r3, [r5, #12]
 8003c08:	0598      	lsls	r0, r3, #22
 8003c0a:	d4f7      	bmi.n	8003bfc <_vfiprintf_r+0x44>
 8003c0c:	6da8      	ldr	r0, [r5, #88]	; 0x58
 8003c0e:	f7ff feaf 	bl	8003970 <__retarget_lock_release_recursive>
 8003c12:	e7f3      	b.n	8003bfc <_vfiprintf_r+0x44>
 8003c14:	2300      	movs	r3, #0
 8003c16:	9309      	str	r3, [sp, #36]	; 0x24
 8003c18:	2320      	movs	r3, #32
 8003c1a:	f88d 3029 	strb.w	r3, [sp, #41]	; 0x29
 8003c1e:	f8cd 800c 	str.w	r8, [sp, #12]
 8003c22:	2330      	movs	r3, #48	; 0x30
 8003c24:	f8df 81b0 	ldr.w	r8, [pc, #432]	; 8003dd8 <_vfiprintf_r+0x220>
 8003c28:	f88d 302a 	strb.w	r3, [sp, #42]	; 0x2a
 8003c2c:	f04f 0901 	mov.w	r9, #1
 8003c30:	4623      	mov	r3, r4
 8003c32:	469a      	mov	sl, r3
 8003c34:	f813 2b01 	ldrb.w	r2, [r3], #1
 8003c38:	b10a      	cbz	r2, 8003c3e <_vfiprintf_r+0x86>
 8003c3a:	2a25      	cmp	r2, #37	; 0x25
 8003c3c:	d1f9      	bne.n	8003c32 <_vfiprintf_r+0x7a>
 8003c3e:	ebba 0b04 	subs.w	fp, sl, r4
 8003c42:	d00b      	beq.n	8003c5c <_vfiprintf_r+0xa4>
 8003c44:	465b      	mov	r3, fp
 8003c46:	4622      	mov	r2, r4
 8003c48:	4629      	mov	r1, r5
 8003c4a:	4630      	mov	r0, r6
 8003c4c:	f7ff ffa1 	bl	8003b92 <__sfputs_r>
 8003c50:	3001      	adds	r0, #1
 8003c52:	f000 80a9 	beq.w	8003da8 <_vfiprintf_r+0x1f0>
 8003c56:	9a09      	ldr	r2, [sp, #36]	; 0x24
 8003c58:	445a      	add	r2, fp
 8003c5a:	9209      	str	r2, [sp, #36]	; 0x24
 8003c5c:	f89a 3000 	ldrb.w	r3, [sl]
 8003c60:	2b00      	cmp	r3, #0
 8003c62:	f000 80a1 	beq.w	8003da8 <_vfiprintf_r+0x1f0>
 8003c66:	2300      	movs	r3, #0
 8003c68:	f04f 32ff 	mov.w	r2, #4294967295
 8003c6c:	e9cd 2305 	strd	r2, r3, [sp, #20]
 8003c70:	f10a 0a01 	add.w	sl, sl, #1
 8003c74:	9304      	str	r3, [sp, #16]
 8003c76:	9307      	str	r3, [sp, #28]
 8003c78:	f88d 3053 	strb.w	r3, [sp, #83]	; 0x53
 8003c7c:	931a      	str	r3, [sp, #104]	; 0x68
 8003c7e:	4654      	mov	r4, sl
 8003c80:	2205      	movs	r2, #5
 8003c82:	f814 1b01 	ldrb.w	r1, [r4], #1
 8003c86:	4854      	ldr	r0, [pc, #336]	; (8003dd8 <_vfiprintf_r+0x220>)
 8003c88:	f7fc faa2 	bl	80001d0 <memchr>
 8003c8c:	9a04      	ldr	r2, [sp, #16]
 8003c8e:	b9d8      	cbnz	r0, 8003cc8 <_vfiprintf_r+0x110>
 8003c90:	06d1      	lsls	r1, r2, #27
 8003c92:	bf44      	itt	mi
 8003c94:	2320      	movmi	r3, #32
 8003c96:	f88d 3053 	strbmi.w	r3, [sp, #83]	; 0x53
 8003c9a:	0713      	lsls	r3, r2, #28
 8003c9c:	bf44      	itt	mi
 8003c9e:	232b      	movmi	r3, #43	; 0x2b
 8003ca0:	f88d 3053 	strbmi.w	r3, [sp, #83]	; 0x53
 8003ca4:	f89a 3000 	ldrb.w	r3, [sl]
 8003ca8:	2b2a      	cmp	r3, #42	; 0x2a
 8003caa:	d015      	beq.n	8003cd8 <_vfiprintf_r+0x120>
 8003cac:	9a07      	ldr	r2, [sp, #28]
 8003cae:	4654      	mov	r4, sl
 8003cb0:	2000      	movs	r0, #0
 8003cb2:	f04f 0c0a 	mov.w	ip, #10
 8003cb6:	4621      	mov	r1, r4
 8003cb8:	f811 3b01 	ldrb.w	r3, [r1], #1
 8003cbc:	3b30      	subs	r3, #48	; 0x30
 8003cbe:	2b09      	cmp	r3, #9
 8003cc0:	d94d      	bls.n	8003d5e <_vfiprintf_r+0x1a6>
 8003cc2:	b1b0      	cbz	r0, 8003cf2 <_vfiprintf_r+0x13a>
 8003cc4:	9207      	str	r2, [sp, #28]
 8003cc6:	e014      	b.n	8003cf2 <_vfiprintf_r+0x13a>
 8003cc8:	eba0 0308 	sub.w	r3, r0, r8
 8003ccc:	fa09 f303 	lsl.w	r3, r9, r3
 8003cd0:	4313      	orrs	r3, r2
 8003cd2:	9304      	str	r3, [sp, #16]
 8003cd4:	46a2      	mov	sl, r4
 8003cd6:	e7d2      	b.n	8003c7e <_vfiprintf_r+0xc6>
 8003cd8:	9b03      	ldr	r3, [sp, #12]
 8003cda:	1d19      	adds	r1, r3, #4
 8003cdc:	681b      	ldr	r3, [r3, #0]
 8003cde:	9103      	str	r1, [sp, #12]
 8003ce0:	2b00      	cmp	r3, #0
 8003ce2:	bfbb      	ittet	lt
 8003ce4:	425b      	neglt	r3, r3
 8003ce6:	f042 0202 	orrlt.w	r2, r2, #2
 8003cea:	9307      	strge	r3, [sp, #28]
 8003cec:	9307      	strlt	r3, [sp, #28]
 8003cee:	bfb8      	it	lt
 8003cf0:	9204      	strlt	r2, [sp, #16]
 8003cf2:	7823      	ldrb	r3, [r4, #0]
 8003cf4:	2b2e      	cmp	r3, #46	; 0x2e
 8003cf6:	d10c      	bne.n	8003d12 <_vfiprintf_r+0x15a>
 8003cf8:	7863      	ldrb	r3, [r4, #1]
 8003cfa:	2b2a      	cmp	r3, #42	; 0x2a
 8003cfc:	d134      	bne.n	8003d68 <_vfiprintf_r+0x1b0>
 8003cfe:	9b03      	ldr	r3, [sp, #12]
 8003d00:	1d1a      	adds	r2, r3, #4
 8003d02:	681b      	ldr	r3, [r3, #0]
 8003d04:	9203      	str	r2, [sp, #12]
 8003d06:	2b00      	cmp	r3, #0
 8003d08:	bfb8      	it	lt
 8003d0a:	f04f 33ff 	movlt.w	r3, #4294967295
 8003d0e:	3402      	adds	r4, #2
 8003d10:	9305      	str	r3, [sp, #20]
 8003d12:	f8df a0d4 	ldr.w	sl, [pc, #212]	; 8003de8 <_vfiprintf_r+0x230>
 8003d16:	7821      	ldrb	r1, [r4, #0]
 8003d18:	2203      	movs	r2, #3
 8003d1a:	4650      	mov	r0, sl
 8003d1c:	f7fc fa58 	bl	80001d0 <memchr>
 8003d20:	b138      	cbz	r0, 8003d32 <_vfiprintf_r+0x17a>
 8003d22:	9b04      	ldr	r3, [sp, #16]
 8003d24:	eba0 000a 	sub.w	r0, r0, sl
 8003d28:	2240      	movs	r2, #64	; 0x40
 8003d2a:	4082      	lsls	r2, r0
 8003d2c:	4313      	orrs	r3, r2
 8003d2e:	3401      	adds	r4, #1
 8003d30:	9304      	str	r3, [sp, #16]
 8003d32:	f814 1b01 	ldrb.w	r1, [r4], #1
 8003d36:	4829      	ldr	r0, [pc, #164]	; (8003ddc <_vfiprintf_r+0x224>)
 8003d38:	f88d 1028 	strb.w	r1, [sp, #40]	; 0x28
 8003d3c:	2206      	movs	r2, #6
 8003d3e:	f7fc fa47 	bl	80001d0 <memchr>
 8003d42:	2800      	cmp	r0, #0
 8003d44:	d03f      	beq.n	8003dc6 <_vfiprintf_r+0x20e>
 8003d46:	4b26      	ldr	r3, [pc, #152]	; (8003de0 <_vfiprintf_r+0x228>)
 8003d48:	bb1b      	cbnz	r3, 8003d92 <_vfiprintf_r+0x1da>
 8003d4a:	9b03      	ldr	r3, [sp, #12]
 8003d4c:	3307      	adds	r3, #7
 8003d4e:	f023 0307 	bic.w	r3, r3, #7
 8003d52:	3308      	adds	r3, #8
 8003d54:	9303      	str	r3, [sp, #12]
 8003d56:	9b09      	ldr	r3, [sp, #36]	; 0x24
 8003d58:	443b      	add	r3, r7
 8003d5a:	9309      	str	r3, [sp, #36]	; 0x24
 8003d5c:	e768      	b.n	8003c30 <_vfiprintf_r+0x78>
 8003d5e:	fb0c 3202 	mla	r2, ip, r2, r3
 8003d62:	460c      	mov	r4, r1
 8003d64:	2001      	movs	r0, #1
 8003d66:	e7a6      	b.n	8003cb6 <_vfiprintf_r+0xfe>
 8003d68:	2300      	movs	r3, #0
 8003d6a:	3401      	adds	r4, #1
 8003d6c:	9305      	str	r3, [sp, #20]
 8003d6e:	4619      	mov	r1, r3
 8003d70:	f04f 0c0a 	mov.w	ip, #10
 8003d74:	4620      	mov	r0, r4
 8003d76:	f810 2b01 	ldrb.w	r2, [r0], #1
 8003d7a:	3a30      	subs	r2, #48	; 0x30
 8003d7c:	2a09      	cmp	r2, #9
 8003d7e:	d903      	bls.n	8003d88 <_vfiprintf_r+0x1d0>
 8003d80:	2b00      	cmp	r3, #0
 8003d82:	d0c6      	beq.n	8003d12 <_vfiprintf_r+0x15a>
 8003d84:	9105      	str	r1, [sp, #20]
 8003d86:	e7c4      	b.n	8003d12 <_vfiprintf_r+0x15a>
 8003d88:	fb0c 2101 	mla	r1, ip, r1, r2
 8003d8c:	4604      	mov	r4, r0
 8003d8e:	2301      	movs	r3, #1
 8003d90:	e7f0      	b.n	8003d74 <_vfiprintf_r+0x1bc>
 8003d92:	ab03      	add	r3, sp, #12
 8003d94:	9300      	str	r3, [sp, #0]
 8003d96:	462a      	mov	r2, r5
 8003d98:	4b12      	ldr	r3, [pc, #72]	; (8003de4 <_vfiprintf_r+0x22c>)
 8003d9a:	a904      	add	r1, sp, #16
 8003d9c:	4630      	mov	r0, r6
 8003d9e:	f3af 8000 	nop.w
 8003da2:	4607      	mov	r7, r0
 8003da4:	1c78      	adds	r0, r7, #1
 8003da6:	d1d6      	bne.n	8003d56 <_vfiprintf_r+0x19e>
 8003da8:	6e6b      	ldr	r3, [r5, #100]	; 0x64
 8003daa:	07d9      	lsls	r1, r3, #31
 8003dac:	d405      	bmi.n	8003dba <_vfiprintf_r+0x202>
 8003dae:	89ab      	ldrh	r3, [r5, #12]
 8003db0:	059a      	lsls	r2, r3, #22
 8003db2:	d402      	bmi.n	8003dba <_vfiprintf_r+0x202>
 8003db4:	6da8      	ldr	r0, [r5, #88]	; 0x58
 8003db6:	f7ff fddb 	bl	8003970 <__retarget_lock_release_recursive>
 8003dba:	89ab      	ldrh	r3, [r5, #12]
 8003dbc:	065b      	lsls	r3, r3, #25
 8003dbe:	f53f af1d 	bmi.w	8003bfc <_vfiprintf_r+0x44>
 8003dc2:	9809      	ldr	r0, [sp, #36]	; 0x24
 8003dc4:	e71c      	b.n	8003c00 <_vfiprintf_r+0x48>
 8003dc6:	ab03      	add	r3, sp, #12
 8003dc8:	9300      	str	r3, [sp, #0]
 8003dca:	462a      	mov	r2, r5
 8003dcc:	4b05      	ldr	r3, [pc, #20]	; (8003de4 <_vfiprintf_r+0x22c>)
 8003dce:	a904      	add	r1, sp, #16
 8003dd0:	4630      	mov	r0, r6
 8003dd2:	f000 f879 	bl	8003ec8 <_printf_i>
 8003dd6:	e7e4      	b.n	8003da2 <_vfiprintf_r+0x1ea>
 8003dd8:	0800455b 	.word	0x0800455b
 8003ddc:	08004565 	.word	0x08004565
 8003de0:	00000000 	.word	0x00000000
 8003de4:	08003b93 	.word	0x08003b93
 8003de8:	08004561 	.word	0x08004561

08003dec <_printf_common>:
 8003dec:	e92d 47f0 	stmdb	sp!, {r4, r5, r6, r7, r8, r9, sl, lr}
 8003df0:	4616      	mov	r6, r2
 8003df2:	4699      	mov	r9, r3
 8003df4:	688a      	ldr	r2, [r1, #8]
 8003df6:	690b      	ldr	r3, [r1, #16]
 8003df8:	f8dd 8020 	ldr.w	r8, [sp, #32]
 8003dfc:	4293      	cmp	r3, r2
 8003dfe:	bfb8      	it	lt
 8003e00:	4613      	movlt	r3, r2
 8003e02:	6033      	str	r3, [r6, #0]
 8003e04:	f891 2043 	ldrb.w	r2, [r1, #67]	; 0x43
 8003e08:	4607      	mov	r7, r0
 8003e0a:	460c      	mov	r4, r1
 8003e0c:	b10a      	cbz	r2, 8003e12 <_printf_common+0x26>
 8003e0e:	3301      	adds	r3, #1
 8003e10:	6033      	str	r3, [r6, #0]
 8003e12:	6823      	ldr	r3, [r4, #0]
 8003e14:	0699      	lsls	r1, r3, #26
 8003e16:	bf42      	ittt	mi
 8003e18:	6833      	ldrmi	r3, [r6, #0]
 8003e1a:	3302      	addmi	r3, #2
 8003e1c:	6033      	strmi	r3, [r6, #0]
 8003e1e:	6825      	ldr	r5, [r4, #0]
 8003e20:	f015 0506 	ands.w	r5, r5, #6
 8003e24:	d106      	bne.n	8003e34 <_printf_common+0x48>
 8003e26:	f104 0a19 	add.w	sl, r4, #25
 8003e2a:	68e3      	ldr	r3, [r4, #12]
 8003e2c:	6832      	ldr	r2, [r6, #0]
 8003e2e:	1a9b      	subs	r3, r3, r2
 8003e30:	42ab      	cmp	r3, r5
 8003e32:	dc26      	bgt.n	8003e82 <_printf_common+0x96>
 8003e34:	f894 2043 	ldrb.w	r2, [r4, #67]	; 0x43
 8003e38:	1e13      	subs	r3, r2, #0
 8003e3a:	6822      	ldr	r2, [r4, #0]
 8003e3c:	bf18      	it	ne
 8003e3e:	2301      	movne	r3, #1
 8003e40:	0692      	lsls	r2, r2, #26
 8003e42:	d42b      	bmi.n	8003e9c <_printf_common+0xb0>
 8003e44:	f104 0243 	add.w	r2, r4, #67	; 0x43
 8003e48:	4649      	mov	r1, r9
 8003e4a:	4638      	mov	r0, r7
 8003e4c:	47c0      	blx	r8
 8003e4e:	3001      	adds	r0, #1
 8003e50:	d01e      	beq.n	8003e90 <_printf_common+0xa4>
 8003e52:	6823      	ldr	r3, [r4, #0]
 8003e54:	6922      	ldr	r2, [r4, #16]
 8003e56:	f003 0306 	and.w	r3, r3, #6
 8003e5a:	2b04      	cmp	r3, #4
 8003e5c:	bf02      	ittt	eq
 8003e5e:	68e5      	ldreq	r5, [r4, #12]
 8003e60:	6833      	ldreq	r3, [r6, #0]
 8003e62:	1aed      	subeq	r5, r5, r3
 8003e64:	68a3      	ldr	r3, [r4, #8]
 8003e66:	bf0c      	ite	eq
 8003e68:	ea25 75e5 	biceq.w	r5, r5, r5, asr #31
 8003e6c:	2500      	movne	r5, #0
 8003e6e:	4293      	cmp	r3, r2
 8003e70:	bfc4      	itt	gt
 8003e72:	1a9b      	subgt	r3, r3, r2
 8003e74:	18ed      	addgt	r5, r5, r3
 8003e76:	2600      	movs	r6, #0
 8003e78:	341a      	adds	r4, #26
 8003e7a:	42b5      	cmp	r5, r6
 8003e7c:	d11a      	bne.n	8003eb4 <_printf_common+0xc8>
 8003e7e:	2000      	movs	r0, #0
 8003e80:	e008      	b.n	8003e94 <_printf_common+0xa8>
 8003e82:	2301      	movs	r3, #1
 8003e84:	4652      	mov	r2, sl
 8003e86:	4649      	mov	r1, r9
 8003e88:	4638      	mov	r0, r7
 8003e8a:	47c0      	blx	r8
 8003e8c:	3001      	adds	r0, #1
 8003e8e:	d103      	bne.n	8003e98 <_printf_common+0xac>
 8003e90:	f04f 30ff 	mov.w	r0, #4294967295
 8003e94:	e8bd 87f0 	ldmia.w	sp!, {r4, r5, r6, r7, r8, r9, sl, pc}
 8003e98:	3501      	adds	r5, #1
 8003e9a:	e7c6      	b.n	8003e2a <_printf_common+0x3e>
 8003e9c:	18e1      	adds	r1, r4, r3
 8003e9e:	1c5a      	adds	r2, r3, #1
 8003ea0:	2030      	movs	r0, #48	; 0x30
 8003ea2:	f881 0043 	strb.w	r0, [r1, #67]	; 0x43
 8003ea6:	4422      	add	r2, r4
 8003ea8:	f894 1045 	ldrb.w	r1, [r4, #69]	; 0x45
 8003eac:	f882 1043 	strb.w	r1, [r2, #67]	; 0x43
 8003eb0:	3302      	adds	r3, #2
 8003eb2:	e7c7      	b.n	8003e44 <_printf_common+0x58>
 8003eb4:	2301      	movs	r3, #1
 8003eb6:	4622      	mov	r2, r4
 8003eb8:	4649      	mov	r1, r9
 8003eba:	4638      	mov	r0, r7
 8003ebc:	47c0      	blx	r8
 8003ebe:	3001      	adds	r0, #1
 8003ec0:	d0e6      	beq.n	8003e90 <_printf_common+0xa4>
 8003ec2:	3601      	adds	r6, #1
 8003ec4:	e7d9      	b.n	8003e7a <_printf_common+0x8e>
	...

08003ec8 <_printf_i>:
 8003ec8:	e92d 47ff 	stmdb	sp!, {r0, r1, r2, r3, r4, r5, r6, r7, r8, r9, sl, lr}
 8003ecc:	7e0f      	ldrb	r7, [r1, #24]
 8003ece:	9d0c      	ldr	r5, [sp, #48]	; 0x30
 8003ed0:	2f78      	cmp	r7, #120	; 0x78
 8003ed2:	4691      	mov	r9, r2
 8003ed4:	4680      	mov	r8, r0
 8003ed6:	460c      	mov	r4, r1
 8003ed8:	469a      	mov	sl, r3
 8003eda:	f101 0243 	add.w	r2, r1, #67	; 0x43
 8003ede:	d807      	bhi.n	8003ef0 <_printf_i+0x28>
 8003ee0:	2f62      	cmp	r7, #98	; 0x62
 8003ee2:	d80a      	bhi.n	8003efa <_printf_i+0x32>
 8003ee4:	2f00      	cmp	r7, #0
 8003ee6:	f000 80d4 	beq.w	8004092 <_printf_i+0x1ca>
 8003eea:	2f58      	cmp	r7, #88	; 0x58
 8003eec:	f000 80c0 	beq.w	8004070 <_printf_i+0x1a8>
 8003ef0:	f104 0542 	add.w	r5, r4, #66	; 0x42
 8003ef4:	f884 7042 	strb.w	r7, [r4, #66]	; 0x42
 8003ef8:	e03a      	b.n	8003f70 <_printf_i+0xa8>
 8003efa:	f1a7 0363 	sub.w	r3, r7, #99	; 0x63
 8003efe:	2b15      	cmp	r3, #21
 8003f00:	d8f6      	bhi.n	8003ef0 <_printf_i+0x28>
 8003f02:	a101      	add	r1, pc, #4	; (adr r1, 8003f08 <_printf_i+0x40>)
 8003f04:	f851 f023 	ldr.w	pc, [r1, r3, lsl #2]
 8003f08:	08003f61 	.word	0x08003f61
 8003f0c:	08003f75 	.word	0x08003f75
 8003f10:	08003ef1 	.word	0x08003ef1
 8003f14:	08003ef1 	.word	0x08003ef1
 8003f18:	08003ef1 	.word	0x08003ef1
 8003f1c:	08003ef1 	.word	0x08003ef1
 8003f20:	08003f75 	.word	0x08003f75
 8003f24:	08003ef1 	.word	0x08003ef1
 8003f28:	08003ef1 	.word	0x08003ef1
 8003f2c:	08003ef1 	.word	0x08003ef1
 8003f30:	08003ef1 	.word	0x08003ef1
 8003f34:	08004079 	.word	0x08004079
 8003f38:	08003fa1 	.word	0x08003fa1
 8003f3c:	08004033 	.word	0x08004033
 8003f40:	08003ef1 	.word	0x08003ef1
 8003f44:	08003ef1 	.word	0x08003ef1
 8003f48:	0800409b 	.word	0x0800409b
 8003f4c:	08003ef1 	.word	0x08003ef1
 8003f50:	08003fa1 	.word	0x08003fa1
 8003f54:	08003ef1 	.word	0x08003ef1
 8003f58:	08003ef1 	.word	0x08003ef1
 8003f5c:	0800403b 	.word	0x0800403b
 8003f60:	682b      	ldr	r3, [r5, #0]
 8003f62:	1d1a      	adds	r2, r3, #4
 8003f64:	681b      	ldr	r3, [r3, #0]
 8003f66:	602a      	str	r2, [r5, #0]
 8003f68:	f104 0542 	add.w	r5, r4, #66	; 0x42
 8003f6c:	f884 3042 	strb.w	r3, [r4, #66]	; 0x42
 8003f70:	2301      	movs	r3, #1
 8003f72:	e09f      	b.n	80040b4 <_printf_i+0x1ec>
 8003f74:	6820      	ldr	r0, [r4, #0]
 8003f76:	682b      	ldr	r3, [r5, #0]
 8003f78:	0607      	lsls	r7, r0, #24
 8003f7a:	f103 0104 	add.w	r1, r3, #4
 8003f7e:	6029      	str	r1, [r5, #0]
 8003f80:	d501      	bpl.n	8003f86 <_printf_i+0xbe>
 8003f82:	681e      	ldr	r6, [r3, #0]
 8003f84:	e003      	b.n	8003f8e <_printf_i+0xc6>
 8003f86:	0646      	lsls	r6, r0, #25
 8003f88:	d5fb      	bpl.n	8003f82 <_printf_i+0xba>
 8003f8a:	f9b3 6000 	ldrsh.w	r6, [r3]
 8003f8e:	2e00      	cmp	r6, #0
 8003f90:	da03      	bge.n	8003f9a <_printf_i+0xd2>
 8003f92:	232d      	movs	r3, #45	; 0x2d
 8003f94:	4276      	negs	r6, r6
 8003f96:	f884 3043 	strb.w	r3, [r4, #67]	; 0x43
 8003f9a:	485a      	ldr	r0, [pc, #360]	; (8004104 <_printf_i+0x23c>)
 8003f9c:	230a      	movs	r3, #10
 8003f9e:	e012      	b.n	8003fc6 <_printf_i+0xfe>
 8003fa0:	682b      	ldr	r3, [r5, #0]
 8003fa2:	6820      	ldr	r0, [r4, #0]
 8003fa4:	1d19      	adds	r1, r3, #4
 8003fa6:	6029      	str	r1, [r5, #0]
 8003fa8:	0605      	lsls	r5, r0, #24
 8003faa:	d501      	bpl.n	8003fb0 <_printf_i+0xe8>
 8003fac:	681e      	ldr	r6, [r3, #0]
 8003fae:	e002      	b.n	8003fb6 <_printf_i+0xee>
 8003fb0:	0641      	lsls	r1, r0, #25
 8003fb2:	d5fb      	bpl.n	8003fac <_printf_i+0xe4>
 8003fb4:	881e      	ldrh	r6, [r3, #0]
 8003fb6:	4853      	ldr	r0, [pc, #332]	; (8004104 <_printf_i+0x23c>)
 8003fb8:	2f6f      	cmp	r7, #111	; 0x6f
 8003fba:	bf0c      	ite	eq
 8003fbc:	2308      	moveq	r3, #8
 8003fbe:	230a      	movne	r3, #10
 8003fc0:	2100      	movs	r1, #0
 8003fc2:	f884 1043 	strb.w	r1, [r4, #67]	; 0x43
 8003fc6:	6865      	ldr	r5, [r4, #4]
 8003fc8:	60a5      	str	r5, [r4, #8]
 8003fca:	2d00      	cmp	r5, #0
 8003fcc:	bfa2      	ittt	ge
 8003fce:	6821      	ldrge	r1, [r4, #0]
 8003fd0:	f021 0104 	bicge.w	r1, r1, #4
 8003fd4:	6021      	strge	r1, [r4, #0]
 8003fd6:	b90e      	cbnz	r6, 8003fdc <_printf_i+0x114>
 8003fd8:	2d00      	cmp	r5, #0
 8003fda:	d04b      	beq.n	8004074 <_printf_i+0x1ac>
 8003fdc:	4615      	mov	r5, r2
 8003fde:	fbb6 f1f3 	udiv	r1, r6, r3
 8003fe2:	fb03 6711 	mls	r7, r3, r1, r6
 8003fe6:	5dc7      	ldrb	r7, [r0, r7]
 8003fe8:	f805 7d01 	strb.w	r7, [r5, #-1]!
 8003fec:	4637      	mov	r7, r6
 8003fee:	42bb      	cmp	r3, r7
 8003ff0:	460e      	mov	r6, r1
 8003ff2:	d9f4      	bls.n	8003fde <_printf_i+0x116>
 8003ff4:	2b08      	cmp	r3, #8
 8003ff6:	d10b      	bne.n	8004010 <_printf_i+0x148>
 8003ff8:	6823      	ldr	r3, [r4, #0]
 8003ffa:	07de      	lsls	r6, r3, #31
 8003ffc:	d508      	bpl.n	8004010 <_printf_i+0x148>
 8003ffe:	6923      	ldr	r3, [r4, #16]
 8004000:	6861      	ldr	r1, [r4, #4]
 8004002:	4299      	cmp	r1, r3
 8004004:	bfde      	ittt	le
 8004006:	2330      	movle	r3, #48	; 0x30
 8004008:	f805 3c01 	strble.w	r3, [r5, #-1]
 800400c:	f105 35ff 	addle.w	r5, r5, #4294967295
 8004010:	1b52      	subs	r2, r2, r5
 8004012:	6122      	str	r2, [r4, #16]
 8004014:	f8cd a000 	str.w	sl, [sp]
 8004018:	464b      	mov	r3, r9
 800401a:	aa03      	add	r2, sp, #12
 800401c:	4621      	mov	r1, r4
 800401e:	4640      	mov	r0, r8
 8004020:	f7ff fee4 	bl	8003dec <_printf_common>
 8004024:	3001      	adds	r0, #1
 8004026:	d14a      	bne.n	80040be <_printf_i+0x1f6>
 8004028:	f04f 30ff 	mov.w	r0, #4294967295
 800402c:	b004      	add	sp, #16
 800402e:	e8bd 87f0 	ldmia.w	sp!, {r4, r5, r6, r7, r8, r9, sl, pc}
 8004032:	6823      	ldr	r3, [r4, #0]
 8004034:	f043 0320 	orr.w	r3, r3, #32
 8004038:	6023      	str	r3, [r4, #0]
 800403a:	4833      	ldr	r0, [pc, #204]	; (8004108 <_printf_i+0x240>)
 800403c:	2778      	movs	r7, #120	; 0x78
 800403e:	f884 7045 	strb.w	r7, [r4, #69]	; 0x45
 8004042:	6823      	ldr	r3, [r4, #0]
 8004044:	6829      	ldr	r1, [r5, #0]
 8004046:	061f      	lsls	r7, r3, #24
 8004048:	f851 6b04 	ldr.w	r6, [r1], #4
 800404c:	d402      	bmi.n	8004054 <_printf_i+0x18c>
 800404e:	065f      	lsls	r7, r3, #25
 8004050:	bf48      	it	mi
 8004052:	b2b6      	uxthmi	r6, r6
 8004054:	07df      	lsls	r7, r3, #31
 8004056:	bf48      	it	mi
 8004058:	f043 0320 	orrmi.w	r3, r3, #32
 800405c:	6029      	str	r1, [r5, #0]
 800405e:	bf48      	it	mi
 8004060:	6023      	strmi	r3, [r4, #0]
 8004062:	b91e      	cbnz	r6, 800406c <_printf_i+0x1a4>
 8004064:	6823      	ldr	r3, [r4, #0]
 8004066:	f023 0320 	bic.w	r3, r3, #32
 800406a:	6023      	str	r3, [r4, #0]
 800406c:	2310      	movs	r3, #16
 800406e:	e7a7      	b.n	8003fc0 <_printf_i+0xf8>
 8004070:	4824      	ldr	r0, [pc, #144]	; (8004104 <_printf_i+0x23c>)
 8004072:	e7e4      	b.n	800403e <_printf_i+0x176>
 8004074:	4615      	mov	r5, r2
 8004076:	e7bd      	b.n	8003ff4 <_printf_i+0x12c>
 8004078:	682b      	ldr	r3, [r5, #0]
 800407a:	6826      	ldr	r6, [r4, #0]
 800407c:	6961      	ldr	r1, [r4, #20]
 800407e:	1d18      	adds	r0, r3, #4
 8004080:	6028      	str	r0, [r5, #0]
 8004082:	0635      	lsls	r5, r6, #24
 8004084:	681b      	ldr	r3, [r3, #0]
 8004086:	d501      	bpl.n	800408c <_printf_i+0x1c4>
 8004088:	6019      	str	r1, [r3, #0]
 800408a:	e002      	b.n	8004092 <_printf_i+0x1ca>
 800408c:	0670      	lsls	r0, r6, #25
 800408e:	d5fb      	bpl.n	8004088 <_printf_i+0x1c0>
 8004090:	8019      	strh	r1, [r3, #0]
 8004092:	2300      	movs	r3, #0
 8004094:	6123      	str	r3, [r4, #16]
 8004096:	4615      	mov	r5, r2
 8004098:	e7bc      	b.n	8004014 <_printf_i+0x14c>
 800409a:	682b      	ldr	r3, [r5, #0]
 800409c:	1d1a      	adds	r2, r3, #4
 800409e:	602a      	str	r2, [r5, #0]
 80040a0:	681d      	ldr	r5, [r3, #0]
 80040a2:	6862      	ldr	r2, [r4, #4]
 80040a4:	2100      	movs	r1, #0
 80040a6:	4628      	mov	r0, r5
 80040a8:	f7fc f892 	bl	80001d0 <memchr>
 80040ac:	b108      	cbz	r0, 80040b2 <_printf_i+0x1ea>
 80040ae:	1b40      	subs	r0, r0, r5
 80040b0:	6060      	str	r0, [r4, #4]
 80040b2:	6863      	ldr	r3, [r4, #4]
 80040b4:	6123      	str	r3, [r4, #16]
 80040b6:	2300      	movs	r3, #0
 80040b8:	f884 3043 	strb.w	r3, [r4, #67]	; 0x43
 80040bc:	e7aa      	b.n	8004014 <_printf_i+0x14c>
 80040be:	6923      	ldr	r3, [r4, #16]
 80040c0:	462a      	mov	r2, r5
 80040c2:	4649      	mov	r1, r9
 80040c4:	4640      	mov	r0, r8
 80040c6:	47d0      	blx	sl
 80040c8:	3001      	adds	r0, #1
 80040ca:	d0ad      	beq.n	8004028 <_printf_i+0x160>
 80040cc:	6823      	ldr	r3, [r4, #0]
 80040ce:	079b      	lsls	r3, r3, #30
 80040d0:	d413      	bmi.n	80040fa <_printf_i+0x232>
 80040d2:	68e0      	ldr	r0, [r4, #12]
 80040d4:	9b03      	ldr	r3, [sp, #12]
 80040d6:	4298      	cmp	r0, r3
 80040d8:	bfb8      	it	lt
 80040da:	4618      	movlt	r0, r3
 80040dc:	e7a6      	b.n	800402c <_printf_i+0x164>
 80040de:	2301      	movs	r3, #1
 80040e0:	4632      	mov	r2, r6
 80040e2:	4649      	mov	r1, r9
 80040e4:	4640      	mov	r0, r8
 80040e6:	47d0      	blx	sl
 80040e8:	3001      	adds	r0, #1
 80040ea:	d09d      	beq.n	8004028 <_printf_i+0x160>
 80040ec:	3501      	adds	r5, #1
 80040ee:	68e3      	ldr	r3, [r4, #12]
 80040f0:	9903      	ldr	r1, [sp, #12]
 80040f2:	1a5b      	subs	r3, r3, r1
 80040f4:	42ab      	cmp	r3, r5
 80040f6:	dcf2      	bgt.n	80040de <_printf_i+0x216>
 80040f8:	e7eb      	b.n	80040d2 <_printf_i+0x20a>
 80040fa:	2500      	movs	r5, #0
 80040fc:	f104 0619 	add.w	r6, r4, #25
 8004100:	e7f5      	b.n	80040ee <_printf_i+0x226>
 8004102:	bf00      	nop
 8004104:	0800456c 	.word	0x0800456c
 8004108:	0800457d 	.word	0x0800457d

0800410c <__sflush_r>:
 800410c:	898a      	ldrh	r2, [r1, #12]
 800410e:	e92d 41f0 	stmdb	sp!, {r4, r5, r6, r7, r8, lr}
 8004112:	4605      	mov	r5, r0
 8004114:	0710      	lsls	r0, r2, #28
 8004116:	460c      	mov	r4, r1
 8004118:	d458      	bmi.n	80041cc <__sflush_r+0xc0>
 800411a:	684b      	ldr	r3, [r1, #4]
 800411c:	2b00      	cmp	r3, #0
 800411e:	dc05      	bgt.n	800412c <__sflush_r+0x20>
 8004120:	6c0b      	ldr	r3, [r1, #64]	; 0x40
 8004122:	2b00      	cmp	r3, #0
 8004124:	dc02      	bgt.n	800412c <__sflush_r+0x20>
 8004126:	2000      	movs	r0, #0
 8004128:	e8bd 81f0 	ldmia.w	sp!, {r4, r5, r6, r7, r8, pc}
 800412c:	6ae6      	ldr	r6, [r4, #44]	; 0x2c
 800412e:	2e00      	cmp	r6, #0
 8004130:	d0f9      	beq.n	8004126 <__sflush_r+0x1a>
 8004132:	2300      	movs	r3, #0
 8004134:	f412 5280 	ands.w	r2, r2, #4096	; 0x1000
 8004138:	682f      	ldr	r7, [r5, #0]
 800413a:	6a21      	ldr	r1, [r4, #32]
 800413c:	602b      	str	r3, [r5, #0]
 800413e:	d032      	beq.n	80041a6 <__sflush_r+0x9a>
 8004140:	6d60      	ldr	r0, [r4, #84]	; 0x54
 8004142:	89a3      	ldrh	r3, [r4, #12]
 8004144:	075a      	lsls	r2, r3, #29
 8004146:	d505      	bpl.n	8004154 <__sflush_r+0x48>
 8004148:	6863      	ldr	r3, [r4, #4]
 800414a:	1ac0      	subs	r0, r0, r3
 800414c:	6b63      	ldr	r3, [r4, #52]	; 0x34
 800414e:	b10b      	cbz	r3, 8004154 <__sflush_r+0x48>
 8004150:	6c23      	ldr	r3, [r4, #64]	; 0x40
 8004152:	1ac0      	subs	r0, r0, r3
 8004154:	2300      	movs	r3, #0
 8004156:	4602      	mov	r2, r0
 8004158:	6ae6      	ldr	r6, [r4, #44]	; 0x2c
 800415a:	6a21      	ldr	r1, [r4, #32]
 800415c:	4628      	mov	r0, r5
 800415e:	47b0      	blx	r6
 8004160:	1c43      	adds	r3, r0, #1
 8004162:	89a3      	ldrh	r3, [r4, #12]
 8004164:	d106      	bne.n	8004174 <__sflush_r+0x68>
 8004166:	6829      	ldr	r1, [r5, #0]
 8004168:	291d      	cmp	r1, #29
 800416a:	d82b      	bhi.n	80041c4 <__sflush_r+0xb8>
 800416c:	4a29      	ldr	r2, [pc, #164]	; (8004214 <__sflush_r+0x108>)
 800416e:	410a      	asrs	r2, r1
 8004170:	07d6      	lsls	r6, r2, #31
 8004172:	d427      	bmi.n	80041c4 <__sflush_r+0xb8>
 8004174:	2200      	movs	r2, #0
 8004176:	6062      	str	r2, [r4, #4]
 8004178:	04d9      	lsls	r1, r3, #19
 800417a:	6922      	ldr	r2, [r4, #16]
 800417c:	6022      	str	r2, [r4, #0]
 800417e:	d504      	bpl.n	800418a <__sflush_r+0x7e>
 8004180:	1c42      	adds	r2, r0, #1
 8004182:	d101      	bne.n	8004188 <__sflush_r+0x7c>
 8004184:	682b      	ldr	r3, [r5, #0]
 8004186:	b903      	cbnz	r3, 800418a <__sflush_r+0x7e>
 8004188:	6560      	str	r0, [r4, #84]	; 0x54
 800418a:	6b61      	ldr	r1, [r4, #52]	; 0x34
 800418c:	602f      	str	r7, [r5, #0]
 800418e:	2900      	cmp	r1, #0
 8004190:	d0c9      	beq.n	8004126 <__sflush_r+0x1a>
 8004192:	f104 0344 	add.w	r3, r4, #68	; 0x44
 8004196:	4299      	cmp	r1, r3
 8004198:	d002      	beq.n	80041a0 <__sflush_r+0x94>
 800419a:	4628      	mov	r0, r5
 800419c:	f7ff fbea 	bl	8003974 <_free_r>
 80041a0:	2000      	movs	r0, #0
 80041a2:	6360      	str	r0, [r4, #52]	; 0x34
 80041a4:	e7c0      	b.n	8004128 <__sflush_r+0x1c>
 80041a6:	2301      	movs	r3, #1
 80041a8:	4628      	mov	r0, r5
 80041aa:	47b0      	blx	r6
 80041ac:	1c41      	adds	r1, r0, #1
 80041ae:	d1c8      	bne.n	8004142 <__sflush_r+0x36>
 80041b0:	682b      	ldr	r3, [r5, #0]
 80041b2:	2b00      	cmp	r3, #0
 80041b4:	d0c5      	beq.n	8004142 <__sflush_r+0x36>
 80041b6:	2b1d      	cmp	r3, #29
 80041b8:	d001      	beq.n	80041be <__sflush_r+0xb2>
 80041ba:	2b16      	cmp	r3, #22
 80041bc:	d101      	bne.n	80041c2 <__sflush_r+0xb6>
 80041be:	602f      	str	r7, [r5, #0]
 80041c0:	e7b1      	b.n	8004126 <__sflush_r+0x1a>
 80041c2:	89a3      	ldrh	r3, [r4, #12]
 80041c4:	f043 0340 	orr.w	r3, r3, #64	; 0x40
 80041c8:	81a3      	strh	r3, [r4, #12]
 80041ca:	e7ad      	b.n	8004128 <__sflush_r+0x1c>
 80041cc:	690f      	ldr	r7, [r1, #16]
 80041ce:	2f00      	cmp	r7, #0
 80041d0:	d0a9      	beq.n	8004126 <__sflush_r+0x1a>
 80041d2:	0793      	lsls	r3, r2, #30
 80041d4:	680e      	ldr	r6, [r1, #0]
 80041d6:	bf08      	it	eq
 80041d8:	694b      	ldreq	r3, [r1, #20]
 80041da:	600f      	str	r7, [r1, #0]
 80041dc:	bf18      	it	ne
 80041de:	2300      	movne	r3, #0
 80041e0:	eba6 0807 	sub.w	r8, r6, r7
 80041e4:	608b      	str	r3, [r1, #8]
 80041e6:	f1b8 0f00 	cmp.w	r8, #0
 80041ea:	dd9c      	ble.n	8004126 <__sflush_r+0x1a>
 80041ec:	6a21      	ldr	r1, [r4, #32]
 80041ee:	6aa6      	ldr	r6, [r4, #40]	; 0x28
 80041f0:	4643      	mov	r3, r8
 80041f2:	463a      	mov	r2, r7
 80041f4:	4628      	mov	r0, r5
 80041f6:	47b0      	blx	r6
 80041f8:	2800      	cmp	r0, #0
 80041fa:	dc06      	bgt.n	800420a <__sflush_r+0xfe>
 80041fc:	89a3      	ldrh	r3, [r4, #12]
 80041fe:	f043 0340 	orr.w	r3, r3, #64	; 0x40
 8004202:	81a3      	strh	r3, [r4, #12]
 8004204:	f04f 30ff 	mov.w	r0, #4294967295
 8004208:	e78e      	b.n	8004128 <__sflush_r+0x1c>
 800420a:	4407      	add	r7, r0
 800420c:	eba8 0800 	sub.w	r8, r8, r0
 8004210:	e7e9      	b.n	80041e6 <__sflush_r+0xda>
 8004212:	bf00      	nop
 8004214:	dfbffffe 	.word	0xdfbffffe

08004218 <_fflush_r>:
 8004218:	b538      	push	{r3, r4, r5, lr}
 800421a:	690b      	ldr	r3, [r1, #16]
 800421c:	4605      	mov	r5, r0
 800421e:	460c      	mov	r4, r1
 8004220:	b913      	cbnz	r3, 8004228 <_fflush_r+0x10>
 8004222:	2500      	movs	r5, #0
 8004224:	4628      	mov	r0, r5
 8004226:	bd38      	pop	{r3, r4, r5, pc}
 8004228:	b118      	cbz	r0, 8004232 <_fflush_r+0x1a>
 800422a:	6a03      	ldr	r3, [r0, #32]
 800422c:	b90b      	cbnz	r3, 8004232 <_fflush_r+0x1a>
 800422e:	f7ff fa99 	bl	8003764 <__sinit>
 8004232:	f9b4 300c 	ldrsh.w	r3, [r4, #12]
 8004236:	2b00      	cmp	r3, #0
 8004238:	d0f3      	beq.n	8004222 <_fflush_r+0xa>
 800423a:	6e62      	ldr	r2, [r4, #100]	; 0x64
 800423c:	07d0      	lsls	r0, r2, #31
 800423e:	d404      	bmi.n	800424a <_fflush_r+0x32>
 8004240:	0599      	lsls	r1, r3, #22
 8004242:	d402      	bmi.n	800424a <_fflush_r+0x32>
 8004244:	6da0      	ldr	r0, [r4, #88]	; 0x58
 8004246:	f7ff fb92 	bl	800396e <__retarget_lock_acquire_recursive>
 800424a:	4628      	mov	r0, r5
 800424c:	4621      	mov	r1, r4
 800424e:	f7ff ff5d 	bl	800410c <__sflush_r>
 8004252:	6e63      	ldr	r3, [r4, #100]	; 0x64
 8004254:	07da      	lsls	r2, r3, #31
 8004256:	4605      	mov	r5, r0
 8004258:	d4e4      	bmi.n	8004224 <_fflush_r+0xc>
 800425a:	89a3      	ldrh	r3, [r4, #12]
 800425c:	059b      	lsls	r3, r3, #22
 800425e:	d4e1      	bmi.n	8004224 <_fflush_r+0xc>
 8004260:	6da0      	ldr	r0, [r4, #88]	; 0x58
 8004262:	f7ff fb85 	bl	8003970 <__retarget_lock_release_recursive>
 8004266:	e7dd      	b.n	8004224 <_fflush_r+0xc>

08004268 <__swbuf_r>:
 8004268:	b5f8      	push	{r3, r4, r5, r6, r7, lr}
 800426a:	460e      	mov	r6, r1
 800426c:	4614      	mov	r4, r2
 800426e:	4605      	mov	r5, r0
 8004270:	b118      	cbz	r0, 800427a <__swbuf_r+0x12>
 8004272:	6a03      	ldr	r3, [r0, #32]
 8004274:	b90b      	cbnz	r3, 800427a <__swbuf_r+0x12>
 8004276:	f7ff fa75 	bl	8003764 <__sinit>
 800427a:	69a3      	ldr	r3, [r4, #24]
 800427c:	60a3      	str	r3, [r4, #8]
 800427e:	89a3      	ldrh	r3, [r4, #12]
 8004280:	071a      	lsls	r2, r3, #28
 8004282:	d525      	bpl.n	80042d0 <__swbuf_r+0x68>
 8004284:	6923      	ldr	r3, [r4, #16]
 8004286:	b31b      	cbz	r3, 80042d0 <__swbuf_r+0x68>
 8004288:	6823      	ldr	r3, [r4, #0]
 800428a:	6922      	ldr	r2, [r4, #16]
 800428c:	1a98      	subs	r0, r3, r2
 800428e:	6963      	ldr	r3, [r4, #20]
 8004290:	b2f6      	uxtb	r6, r6
 8004292:	4283      	cmp	r3, r0
 8004294:	4637      	mov	r7, r6
 8004296:	dc04      	bgt.n	80042a2 <__swbuf_r+0x3a>
 8004298:	4621      	mov	r1, r4
 800429a:	4628      	mov	r0, r5
 800429c:	f7ff ffbc 	bl	8004218 <_fflush_r>
 80042a0:	b9e0      	cbnz	r0, 80042dc <__swbuf_r+0x74>
 80042a2:	68a3      	ldr	r3, [r4, #8]
 80042a4:	3b01      	subs	r3, #1
 80042a6:	60a3      	str	r3, [r4, #8]
 80042a8:	6823      	ldr	r3, [r4, #0]
 80042aa:	1c5a      	adds	r2, r3, #1
 80042ac:	6022      	str	r2, [r4, #0]
 80042ae:	701e      	strb	r6, [r3, #0]
 80042b0:	6962      	ldr	r2, [r4, #20]
 80042b2:	1c43      	adds	r3, r0, #1
 80042b4:	429a      	cmp	r2, r3
 80042b6:	d004      	beq.n	80042c2 <__swbuf_r+0x5a>
 80042b8:	89a3      	ldrh	r3, [r4, #12]
 80042ba:	07db      	lsls	r3, r3, #31
 80042bc:	d506      	bpl.n	80042cc <__swbuf_r+0x64>
 80042be:	2e0a      	cmp	r6, #10
 80042c0:	d104      	bne.n	80042cc <__swbuf_r+0x64>
 80042c2:	4621      	mov	r1, r4
 80042c4:	4628      	mov	r0, r5
 80042c6:	f7ff ffa7 	bl	8004218 <_fflush_r>
 80042ca:	b938      	cbnz	r0, 80042dc <__swbuf_r+0x74>
 80042cc:	4638      	mov	r0, r7
 80042ce:	bdf8      	pop	{r3, r4, r5, r6, r7, pc}
 80042d0:	4621      	mov	r1, r4
 80042d2:	4628      	mov	r0, r5
 80042d4:	f000 f806 	bl	80042e4 <__swsetup_r>
 80042d8:	2800      	cmp	r0, #0
 80042da:	d0d5      	beq.n	8004288 <__swbuf_r+0x20>
 80042dc:	f04f 37ff 	mov.w	r7, #4294967295
 80042e0:	e7f4      	b.n	80042cc <__swbuf_r+0x64>
	...

080042e4 <__swsetup_r>:
 80042e4:	b538      	push	{r3, r4, r5, lr}
 80042e6:	4b2a      	ldr	r3, [pc, #168]	; (8004390 <__swsetup_r+0xac>)
 80042e8:	4605      	mov	r5, r0
 80042ea:	6818      	ldr	r0, [r3, #0]
 80042ec:	460c      	mov	r4, r1
 80042ee:	b118      	cbz	r0, 80042f8 <__swsetup_r+0x14>
 80042f0:	6a03      	ldr	r3, [r0, #32]
 80042f2:	b90b      	cbnz	r3, 80042f8 <__swsetup_r+0x14>
 80042f4:	f7ff fa36 	bl	8003764 <__sinit>
 80042f8:	89a3      	ldrh	r3, [r4, #12]
 80042fa:	f9b4 200c 	ldrsh.w	r2, [r4, #12]
 80042fe:	0718      	lsls	r0, r3, #28
 8004300:	d422      	bmi.n	8004348 <__swsetup_r+0x64>
 8004302:	06d9      	lsls	r1, r3, #27
 8004304:	d407      	bmi.n	8004316 <__swsetup_r+0x32>
 8004306:	2309      	movs	r3, #9
 8004308:	602b      	str	r3, [r5, #0]
 800430a:	f042 0340 	orr.w	r3, r2, #64	; 0x40
 800430e:	81a3      	strh	r3, [r4, #12]
 8004310:	f04f 30ff 	mov.w	r0, #4294967295
 8004314:	e034      	b.n	8004380 <__swsetup_r+0x9c>
 8004316:	0758      	lsls	r0, r3, #29
 8004318:	d512      	bpl.n	8004340 <__swsetup_r+0x5c>
 800431a:	6b61      	ldr	r1, [r4, #52]	; 0x34
 800431c:	b141      	cbz	r1, 8004330 <__swsetup_r+0x4c>
 800431e:	f104 0344 	add.w	r3, r4, #68	; 0x44
 8004322:	4299      	cmp	r1, r3
 8004324:	d002      	beq.n	800432c <__swsetup_r+0x48>
 8004326:	4628      	mov	r0, r5
 8004328:	f7ff fb24 	bl	8003974 <_free_r>
 800432c:	2300      	movs	r3, #0
 800432e:	6363      	str	r3, [r4, #52]	; 0x34
 8004330:	89a3      	ldrh	r3, [r4, #12]
 8004332:	f023 0324 	bic.w	r3, r3, #36	; 0x24
 8004336:	81a3      	strh	r3, [r4, #12]
 8004338:	2300      	movs	r3, #0
 800433a:	6063      	str	r3, [r4, #4]
 800433c:	6923      	ldr	r3, [r4, #16]
 800433e:	6023      	str	r3, [r4, #0]
 8004340:	89a3      	ldrh	r3, [r4, #12]
 8004342:	f043 0308 	orr.w	r3, r3, #8
 8004346:	81a3      	strh	r3, [r4, #12]
 8004348:	6923      	ldr	r3, [r4, #16]
 800434a:	b94b      	cbnz	r3, 8004360 <__swsetup_r+0x7c>
 800434c:	89a3      	ldrh	r3, [r4, #12]
 800434e:	f403 7320 	and.w	r3, r3, #640	; 0x280
 8004352:	f5b3 7f00 	cmp.w	r3, #512	; 0x200
 8004356:	d003      	beq.n	8004360 <__swsetup_r+0x7c>
 8004358:	4621      	mov	r1, r4
 800435a:	4628      	mov	r0, r5
 800435c:	f000 f850 	bl	8004400 <__smakebuf_r>
 8004360:	89a0      	ldrh	r0, [r4, #12]
 8004362:	f9b4 200c 	ldrsh.w	r2, [r4, #12]
 8004366:	f010 0301 	ands.w	r3, r0, #1
 800436a:	d00a      	beq.n	8004382 <__swsetup_r+0x9e>
 800436c:	2300      	movs	r3, #0
 800436e:	60a3      	str	r3, [r4, #8]
 8004370:	6963      	ldr	r3, [r4, #20]
 8004372:	425b      	negs	r3, r3
 8004374:	61a3      	str	r3, [r4, #24]
 8004376:	6923      	ldr	r3, [r4, #16]
 8004378:	b943      	cbnz	r3, 800438c <__swsetup_r+0xa8>
 800437a:	f010 0080 	ands.w	r0, r0, #128	; 0x80
 800437e:	d1c4      	bne.n	800430a <__swsetup_r+0x26>
 8004380:	bd38      	pop	{r3, r4, r5, pc}
 8004382:	0781      	lsls	r1, r0, #30
 8004384:	bf58      	it	pl
 8004386:	6963      	ldrpl	r3, [r4, #20]
 8004388:	60a3      	str	r3, [r4, #8]
 800438a:	e7f4      	b.n	8004376 <__swsetup_r+0x92>
 800438c:	2000      	movs	r0, #0
 800438e:	e7f7      	b.n	8004380 <__swsetup_r+0x9c>
 8004390:	200001a8 	.word	0x200001a8

08004394 <_sbrk_r>:
 8004394:	b538      	push	{r3, r4, r5, lr}
 8004396:	4d06      	ldr	r5, [pc, #24]	; (80043b0 <_sbrk_r+0x1c>)
 8004398:	2300      	movs	r3, #0
 800439a:	4604      	mov	r4, r0
 800439c:	4608      	mov	r0, r1
 800439e:	602b      	str	r3, [r5, #0]
 80043a0:	f7fc fa42 	bl	8000828 <_sbrk>
 80043a4:	1c43      	adds	r3, r0, #1
 80043a6:	d102      	bne.n	80043ae <_sbrk_r+0x1a>
 80043a8:	682b      	ldr	r3, [r5, #0]
 80043aa:	b103      	cbz	r3, 80043ae <_sbrk_r+0x1a>
 80043ac:	6023      	str	r3, [r4, #0]
 80043ae:	bd38      	pop	{r3, r4, r5, pc}
 80043b0:	20000d74 	.word	0x20000d74

080043b4 <__swhatbuf_r>:
 80043b4:	b570      	push	{r4, r5, r6, lr}
 80043b6:	460c      	mov	r4, r1
 80043b8:	f9b1 100e 	ldrsh.w	r1, [r1, #14]
 80043bc:	2900      	cmp	r1, #0
 80043be:	b096      	sub	sp, #88	; 0x58
 80043c0:	4615      	mov	r5, r2
 80043c2:	461e      	mov	r6, r3
 80043c4:	da0d      	bge.n	80043e2 <__swhatbuf_r+0x2e>
 80043c6:	89a3      	ldrh	r3, [r4, #12]
 80043c8:	f013 0f80 	tst.w	r3, #128	; 0x80
 80043cc:	f04f 0100 	mov.w	r1, #0
 80043d0:	bf0c      	ite	eq
 80043d2:	f44f 6380 	moveq.w	r3, #1024	; 0x400
 80043d6:	2340      	movne	r3, #64	; 0x40
 80043d8:	2000      	movs	r0, #0
 80043da:	6031      	str	r1, [r6, #0]
 80043dc:	602b      	str	r3, [r5, #0]
 80043de:	b016      	add	sp, #88	; 0x58
 80043e0:	bd70      	pop	{r4, r5, r6, pc}
 80043e2:	466a      	mov	r2, sp
 80043e4:	f000 f848 	bl	8004478 <_fstat_r>
 80043e8:	2800      	cmp	r0, #0
 80043ea:	dbec      	blt.n	80043c6 <__swhatbuf_r+0x12>
 80043ec:	9901      	ldr	r1, [sp, #4]
 80043ee:	f401 4170 	and.w	r1, r1, #61440	; 0xf000
 80043f2:	f5a1 5300 	sub.w	r3, r1, #8192	; 0x2000
 80043f6:	4259      	negs	r1, r3
 80043f8:	4159      	adcs	r1, r3
 80043fa:	f44f 6380 	mov.w	r3, #1024	; 0x400
 80043fe:	e7eb      	b.n	80043d8 <__swhatbuf_r+0x24>

08004400 <__smakebuf_r>:
 8004400:	898b      	ldrh	r3, [r1, #12]
 8004402:	b573      	push	{r0, r1, r4, r5, r6, lr}
 8004404:	079d      	lsls	r5, r3, #30
 8004406:	4606      	mov	r6, r0
 8004408:	460c      	mov	r4, r1
 800440a:	d507      	bpl.n	800441c <__smakebuf_r+0x1c>
 800440c:	f104 0347 	add.w	r3, r4, #71	; 0x47
 8004410:	6023      	str	r3, [r4, #0]
 8004412:	6123      	str	r3, [r4, #16]
 8004414:	2301      	movs	r3, #1
 8004416:	6163      	str	r3, [r4, #20]
 8004418:	b002      	add	sp, #8
 800441a:	bd70      	pop	{r4, r5, r6, pc}
 800441c:	ab01      	add	r3, sp, #4
 800441e:	466a      	mov	r2, sp
 8004420:	f7ff ffc8 	bl	80043b4 <__swhatbuf_r>
 8004424:	9900      	ldr	r1, [sp, #0]
 8004426:	4605      	mov	r5, r0
 8004428:	4630      	mov	r0, r6
 800442a:	f7ff fb0f 	bl	8003a4c <_malloc_r>
 800442e:	b948      	cbnz	r0, 8004444 <__smakebuf_r+0x44>
 8004430:	f9b4 300c 	ldrsh.w	r3, [r4, #12]
 8004434:	059a      	lsls	r2, r3, #22
 8004436:	d4ef      	bmi.n	8004418 <__smakebuf_r+0x18>
 8004438:	f023 0303 	bic.w	r3, r3, #3
 800443c:	f043 0302 	orr.w	r3, r3, #2
 8004440:	81a3      	strh	r3, [r4, #12]
 8004442:	e7e3      	b.n	800440c <__smakebuf_r+0xc>
 8004444:	89a3      	ldrh	r3, [r4, #12]
 8004446:	6020      	str	r0, [r4, #0]
 8004448:	f043 0380 	orr.w	r3, r3, #128	; 0x80
 800444c:	81a3      	strh	r3, [r4, #12]
 800444e:	9b00      	ldr	r3, [sp, #0]
 8004450:	6163      	str	r3, [r4, #20]
 8004452:	9b01      	ldr	r3, [sp, #4]
 8004454:	6120      	str	r0, [r4, #16]
 8004456:	b15b      	cbz	r3, 8004470 <__smakebuf_r+0x70>
 8004458:	f9b4 100e 	ldrsh.w	r1, [r4, #14]
 800445c:	4630      	mov	r0, r6
 800445e:	f000 f81d 	bl	800449c <_isatty_r>
 8004462:	b128      	cbz	r0, 8004470 <__smakebuf_r+0x70>
 8004464:	89a3      	ldrh	r3, [r4, #12]
 8004466:	f023 0303 	bic.w	r3, r3, #3
 800446a:	f043 0301 	orr.w	r3, r3, #1
 800446e:	81a3      	strh	r3, [r4, #12]
 8004470:	89a3      	ldrh	r3, [r4, #12]
 8004472:	431d      	orrs	r5, r3
 8004474:	81a5      	strh	r5, [r4, #12]
 8004476:	e7cf      	b.n	8004418 <__smakebuf_r+0x18>

08004478 <_fstat_r>:
 8004478:	b538      	push	{r3, r4, r5, lr}
 800447a:	4d07      	ldr	r5, [pc, #28]	; (8004498 <_fstat_r+0x20>)
 800447c:	2300      	movs	r3, #0
 800447e:	4604      	mov	r4, r0
 8004480:	4608      	mov	r0, r1
 8004482:	4611      	mov	r1, r2
 8004484:	602b      	str	r3, [r5, #0]
 8004486:	f7fc f9c6 	bl	8000816 <_fstat>
 800448a:	1c43      	adds	r3, r0, #1
 800448c:	d102      	bne.n	8004494 <_fstat_r+0x1c>
 800448e:	682b      	ldr	r3, [r5, #0]
 8004490:	b103      	cbz	r3, 8004494 <_fstat_r+0x1c>
 8004492:	6023      	str	r3, [r4, #0]
 8004494:	bd38      	pop	{r3, r4, r5, pc}
 8004496:	bf00      	nop
 8004498:	20000d74 	.word	0x20000d74

0800449c <_isatty_r>:
 800449c:	b538      	push	{r3, r4, r5, lr}
 800449e:	4d06      	ldr	r5, [pc, #24]	; (80044b8 <_isatty_r+0x1c>)
 80044a0:	2300      	movs	r3, #0
 80044a2:	4604      	mov	r4, r0
 80044a4:	4608      	mov	r0, r1
 80044a6:	602b      	str	r3, [r5, #0]
 80044a8:	f7fc f9ba 	bl	8000820 <_isatty>
 80044ac:	1c43      	adds	r3, r0, #1
 80044ae:	d102      	bne.n	80044b6 <_isatty_r+0x1a>
 80044b0:	682b      	ldr	r3, [r5, #0]
 80044b2:	b103      	cbz	r3, 80044b6 <_isatty_r+0x1a>
 80044b4:	6023      	str	r3, [r4, #0]
 80044b6:	bd38      	pop	{r3, r4, r5, pc}
 80044b8:	20000d74 	.word	0x20000d74

080044bc <_init>:
 80044bc:	b5f8      	push	{r3, r4, r5, r6, r7, lr}
 80044be:	bf00      	nop
 80044c0:	bcf8      	pop	{r3, r4, r5, r6, r7}
 80044c2:	bc08      	pop	{r3}
 80044c4:	469e      	mov	lr, r3
 80044c6:	4770      	bx	lr

080044c8 <_fini>:
 80044c8:	b5f8      	push	{r3, r4, r5, r6, r7, lr}
 80044ca:	bf00      	nop
 80044cc:	bcf8      	pop	{r3, r4, r5, r6, r7}
 80044ce:	bc08      	pop	{r3}
 80044d0:	469e      	mov	lr, r3
 80044d2:	4770      	bx	lr
